
/home/cyh/nexus-am/tests/cputest/build/wanshu-riscv64-cyh.elf:     file format elf64-littleriscv


Disassembly of section .text:

0000000080000000 <_start>:
    80000000:	00000413          	li	s0,0
    80000004:	0000a117          	auipc	sp,0xa
    80000008:	ffc10113          	addi	sp,sp,-4 # 8000a000 <_end>
    8000000c:	0a2000ef          	jal	800000ae <_trm_init>

0000000080000010 <nemu_assert>:
    80000010:	c111                	beqz	a0,80000014 <nemu_assert+0x4>
    80000012:	8082                	ret
    80000014:	1141                	addi	sp,sp,-16
    80000016:	4505                	li	a0,1
    80000018:	e406                	sd	ra,8(sp)
    8000001a:	06e000ef          	jal	80000088 <_halt>

Disassembly of section .text.startup:

000000008000001e <main>:
    8000001e:	7179                	addi	sp,sp,-48
    80000020:	f022                	sd	s0,32(sp)
    80000022:	ec26                	sd	s1,24(sp)
    80000024:	e84a                	sd	s2,16(sp)
    80000026:	e44e                	sd	s3,8(sp)
    80000028:	f406                	sd	ra,40(sp)
    8000002a:	4901                	li	s2,0
    8000002c:	4409                	li	s0,2
    8000002e:	00001997          	auipc	s3,0x1
    80000032:	51a98993          	addi	s3,s3,1306 # 80001548 <ans>
    80000036:	44f9                	li	s1,30
    80000038:	4785                	li	a5,1
    8000003a:	4681                	li	a3,0
    8000003c:	02f4673b          	remw	a4,s0,a5
    80000040:	e311                	bnez	a4,80000044 <main+0x26>
    80000042:	9ebd                	addw	a3,a3,a5
    80000044:	2785                	addiw	a5,a5,1
    80000046:	fef41be3          	bne	s0,a5,8000003c <main+0x1e>
    8000004a:	02d40363          	beq	s0,a3,80000070 <main+0x52>
    8000004e:	2405                	addiw	s0,s0,1
    80000050:	fe9414e3          	bne	s0,s1,80000038 <main+0x1a>
    80000054:	ffe90513          	addi	a0,s2,-2
    80000058:	00153513          	seqz	a0,a0
    8000005c:	fb5ff0ef          	jal	80000010 <nemu_assert>
    80000060:	70a2                	ld	ra,40(sp)
    80000062:	7402                	ld	s0,32(sp)
    80000064:	64e2                	ld	s1,24(sp)
    80000066:	6942                	ld	s2,16(sp)
    80000068:	69a2                	ld	s3,8(sp)
    8000006a:	4501                	li	a0,0
    8000006c:	6145                	addi	sp,sp,48
    8000006e:	8082                	ret
    80000070:	00291793          	slli	a5,s2,0x2
    80000074:	97ce                	add	a5,a5,s3
    80000076:	4388                	lw	a0,0(a5)
    80000078:	2905                	addiw	s2,s2,1
    8000007a:	8d01                	sub	a0,a0,s0
    8000007c:	00153513          	seqz	a0,a0
    80000080:	f91ff0ef          	jal	80000010 <nemu_assert>
    80000084:	b7e9                	j	8000004e <main+0x30>

Disassembly of section .text._putc:

0000000080000086 <_putc>:
    80000086:	a0b1                	j	800000d2 <__am_uartlite_putchar>

Disassembly of section .text._halt:

0000000080000088 <_halt>:
    80000088:	1141                	addi	sp,sp,-16
    8000008a:	e406                	sd	ra,8(sp)
    8000008c:	85aa                	mv	a1,a0
    8000008e:	852a                	mv	a0,a0
    80000090:	400002b7          	lui	t0,0x40000
    80000094:	deadc337          	lui	t1,0xdeadc
    80000098:	eef3031b          	addiw	t1,t1,-273 # ffffffffdeadbeef <_pmem_end+0xffffffff56adbeef>
    8000009c:	0062a023          	sw	t1,0(t0) # 40000000 <_start-0x40000000>
    800000a0:	00001517          	auipc	a0,0x1
    800000a4:	1e850513          	addi	a0,a0,488 # 80001288 <printf_+0x34>
    800000a8:	1ac010ef          	jal	80001254 <printf_>
    800000ac:	a001                	j	800000ac <_halt+0x24>

Disassembly of section .text._trm_init:

00000000800000ae <_trm_init>:
    800000ae:	1141                	addi	sp,sp,-16
    800000b0:	e406                	sd	ra,8(sp)
    800000b2:	014000ef          	jal	800000c6 <__am_init_uartlite>
    800000b6:	00001517          	auipc	a0,0x1
    800000ba:	20750513          	addi	a0,a0,519 # 800012bd <__am_mainargs>
    800000be:	f61ff0ef          	jal	8000001e <main>
    800000c2:	fc7ff0ef          	jal	80000088 <_halt>

Disassembly of section .text.__am_init_uartlite:

00000000800000c6 <__am_init_uartlite>:
    800000c6:	406007b7          	lui	a5,0x40600
    800000ca:	470d                	li	a4,3
    800000cc:	00e78623          	sb	a4,12(a5) # 4060000c <_start-0x3f9ffff4>
    800000d0:	8082                	ret

Disassembly of section .text.__am_uartlite_putchar:

00000000800000d2 <__am_uartlite_putchar>:
    800000d2:	47a9                	li	a5,10
    800000d4:	00f50e63          	beq	a0,a5,800000f0 <__am_uartlite_putchar+0x1e>
    800000d8:	40600737          	lui	a4,0x40600
    800000dc:	0721                	addi	a4,a4,8 # 40600008 <_start-0x3f9ffff8>
    800000de:	00074783          	lbu	a5,0(a4)
    800000e2:	8ba1                	andi	a5,a5,8
    800000e4:	ffed                	bnez	a5,800000de <__am_uartlite_putchar+0xc>
    800000e6:	406007b7          	lui	a5,0x40600
    800000ea:	00a78223          	sb	a0,4(a5) # 40600004 <_start-0x3f9ffffc>
    800000ee:	8082                	ret
    800000f0:	40600737          	lui	a4,0x40600
    800000f4:	0721                	addi	a4,a4,8 # 40600008 <_start-0x3f9ffff8>
    800000f6:	00074783          	lbu	a5,0(a4)
    800000fa:	8ba1                	andi	a5,a5,8
    800000fc:	ffed                	bnez	a5,800000f6 <__am_uartlite_putchar+0x24>
    800000fe:	406007b7          	lui	a5,0x40600
    80000102:	4735                	li	a4,13
    80000104:	00e78223          	sb	a4,4(a5) # 40600004 <_start-0x3f9ffffc>
    80000108:	bfc1                	j	800000d8 <__am_uartlite_putchar+0x6>

Disassembly of section .text._out_null:

000000008000010a <_out_null>:
    8000010a:	8082                	ret

Disassembly of section .text._out_rev:

000000008000010c <_out_rev>:
    8000010c:	711d                	addi	sp,sp,-96
    8000010e:	e8a2                	sd	s0,80(sp)
    80000110:	fc4e                	sd	s3,56(sp)
    80000112:	f852                	sd	s4,48(sp)
    80000114:	f456                	sd	s5,40(sp)
    80000116:	f05a                	sd	s6,32(sp)
    80000118:	ec5e                	sd	s7,24(sp)
    8000011a:	e862                	sd	s8,16(sp)
    8000011c:	e466                	sd	s9,8(sp)
    8000011e:	ec86                	sd	ra,88(sp)
    80000120:	8cc6                	mv	s9,a7
    80000122:	e4a6                	sd	s1,72(sp)
    80000124:	e0ca                	sd	s2,64(sp)
    80000126:	0038f893          	andi	a7,a7,3
    8000012a:	89aa                	mv	s3,a0
    8000012c:	8a2e                	mv	s4,a1
    8000012e:	8b32                	mv	s6,a2
    80000130:	8ab6                	mv	s5,a3
    80000132:	8bba                	mv	s7,a4
    80000134:	843e                	mv	s0,a5
    80000136:	8c42                	mv	s8,a6
    80000138:	08089563          	bnez	a7,800001c2 <_out_rev+0xb6>
    8000013c:	02081793          	slli	a5,a6,0x20
    80000140:	9381                	srli	a5,a5,0x20
    80000142:	40878933          	sub	s2,a5,s0
    80000146:	9932                	add	s2,s2,a2
    80000148:	84b2                	mv	s1,a2
    8000014a:	08f47063          	bgeu	s0,a5,800001ca <_out_rev+0xbe>
    8000014e:	8626                	mv	a2,s1
    80000150:	86d6                	mv	a3,s5
    80000152:	0485                	addi	s1,s1,1
    80000154:	85d2                	mv	a1,s4
    80000156:	02000513          	li	a0,32
    8000015a:	9982                	jalr	s3
    8000015c:	ff2499e3          	bne	s1,s2,8000014e <_out_rev+0x42>
    80000160:	c039                	beqz	s0,800001a6 <_out_rev+0x9a>
    80000162:	9922                	add	s2,s2,s0
    80000164:	40890633          	sub	a2,s2,s0
    80000168:	147d                	addi	s0,s0,-1
    8000016a:	008b87b3          	add	a5,s7,s0
    8000016e:	0007c503          	lbu	a0,0(a5)
    80000172:	86d6                	mv	a3,s5
    80000174:	85d2                	mv	a1,s4
    80000176:	84ca                	mv	s1,s2
    80000178:	9982                	jalr	s3
    8000017a:	f46d                	bnez	s0,80000164 <_out_rev+0x58>
    8000017c:	002cfc93          	andi	s9,s9,2
    80000180:	020c8363          	beqz	s9,800001a6 <_out_rev+0x9a>
    80000184:	1c02                	slli	s8,s8,0x20
    80000186:	41648b33          	sub	s6,s1,s6
    8000018a:	020c5c13          	srli	s8,s8,0x20
    8000018e:	018b7c63          	bgeu	s6,s8,800001a6 <_out_rev+0x9a>
    80000192:	8626                	mv	a2,s1
    80000194:	86d6                	mv	a3,s5
    80000196:	85d2                	mv	a1,s4
    80000198:	02000513          	li	a0,32
    8000019c:	0b05                	addi	s6,s6,1
    8000019e:	0485                	addi	s1,s1,1
    800001a0:	9982                	jalr	s3
    800001a2:	ff8b68e3          	bltu	s6,s8,80000192 <_out_rev+0x86>
    800001a6:	60e6                	ld	ra,88(sp)
    800001a8:	6446                	ld	s0,80(sp)
    800001aa:	6906                	ld	s2,64(sp)
    800001ac:	79e2                	ld	s3,56(sp)
    800001ae:	7a42                	ld	s4,48(sp)
    800001b0:	7aa2                	ld	s5,40(sp)
    800001b2:	7b02                	ld	s6,32(sp)
    800001b4:	6be2                	ld	s7,24(sp)
    800001b6:	6c42                	ld	s8,16(sp)
    800001b8:	6ca2                	ld	s9,8(sp)
    800001ba:	8526                	mv	a0,s1
    800001bc:	64a6                	ld	s1,72(sp)
    800001be:	6125                	addi	sp,sp,96
    800001c0:	8082                	ret
    800001c2:	8932                	mv	s2,a2
    800001c4:	84b2                	mv	s1,a2
    800001c6:	ffd1                	bnez	a5,80000162 <_out_rev+0x56>
    800001c8:	bf55                	j	8000017c <_out_rev+0x70>
    800001ca:	8932                	mv	s2,a2
    800001cc:	f859                	bnez	s0,80000162 <_out_rev+0x56>
    800001ce:	bfe1                	j	800001a6 <_out_rev+0x9a>

Disassembly of section .text._ntoa_long:

00000000800001d0 <_ntoa_long>:
    800001d0:	715d                	addi	sp,sp,-80
    800001d2:	e0a2                	sd	s0,64(sp)
    800001d4:	4466                	lw	s0,88(sp)
    800001d6:	fc26                	sd	s1,56(sp)
    800001d8:	f84a                	sd	s2,48(sp)
    800001da:	f44e                	sd	s3,40(sp)
    800001dc:	e486                	sd	ra,72(sp)
    800001de:	8ec2                	mv	t4,a6
    800001e0:	8e3a                	mv	t3,a4
    800001e2:	4846                	lw	a6,80(sp)
    800001e4:	84be                	mv	s1,a5
    800001e6:	40047993          	andi	s3,s0,1024
    800001ea:	01047913          	andi	s2,s0,16
    800001ee:	e711                	bnez	a4,800001fa <_ntoa_long+0x2a>
    800001f0:	8922                	mv	s2,s0
    800001f2:	983d                	andi	s0,s0,-17
    800001f4:	08099f63          	bnez	s3,80000292 <_ntoa_long+0xc2>
    800001f8:	4901                	li	s2,0
    800001fa:	4054579b          	sraiw	a5,s0,0x5
    800001fe:	8b85                	andi	a5,a5,1
    80000200:	06100293          	li	t0,97
    80000204:	10079763          	bnez	a5,80000312 <_ntoa_long+0x142>
    80000208:	4781                	li	a5,0
    8000020a:	870a                	mv	a4,sp
    8000020c:	43a5                	li	t2,9
    8000020e:	32d9                	addiw	t0,t0,-10
    80000210:	02000093          	li	ra,32
    80000214:	a021                	j	8000021c <_ntoa_long+0x4c>
    80000216:	02178a63          	beq	a5,ra,8000024a <_ntoa_long+0x7a>
    8000021a:	8e1a                	mv	t3,t1
    8000021c:	03de7f33          	remu	t5,t3,t4
    80000220:	0fff7313          	zext.b	t1,t5
    80000224:	03030f9b          	addiw	t6,t1,48
    80000228:	0062833b          	addw	t1,t0,t1
    8000022c:	0ff37313          	zext.b	t1,t1
    80000230:	01e3e463          	bltu	t2,t5,80000238 <_ntoa_long+0x68>
    80000234:	0ffff313          	zext.b	t1,t6
    80000238:	0785                	addi	a5,a5,1
    8000023a:	00f70f33          	add	t5,a4,a5
    8000023e:	fe6f0fa3          	sb	t1,-1(t5)
    80000242:	03de5333          	divu	t1,t3,t4
    80000246:	fdde78e3          	bgeu	t3,t4,80000216 <_ntoa_long+0x46>
    8000024a:	00247313          	andi	t1,s0,2
    8000024e:	04030b63          	beqz	t1,800002a4 <_ntoa_long+0xd4>
    80000252:	10090163          	beqz	s2,80000354 <_ntoa_long+0x184>
    80000256:	0c099c63          	bnez	s3,8000032e <_ntoa_long+0x15e>
    8000025a:	efdd                	bnez	a5,80000318 <_ntoa_long+0x148>
    8000025c:	47c1                	li	a5,16
    8000025e:	22fe8063          	beq	t4,a5,8000047e <_ntoa_long+0x2ae>
    80000262:	4789                	li	a5,2
    80000264:	26fe8963          	beq	t4,a5,800004d6 <_ntoa_long+0x306>
    80000268:	03000793          	li	a5,48
    8000026c:	00f10023          	sb	a5,0(sp)
    80000270:	4785                	li	a5,1
    80000272:	16049163          	bnez	s1,800003d4 <_ntoa_long+0x204>
    80000276:	00447893          	andi	a7,s0,4
    8000027a:	1e088463          	beqz	a7,80000462 <_ntoa_long+0x292>
    8000027e:	02078493          	addi	s1,a5,32
    80000282:	002488b3          	add	a7,s1,sp
    80000286:	02b00313          	li	t1,43
    8000028a:	fe688023          	sb	t1,-32(a7)
    8000028e:	0785                	addi	a5,a5,1
    80000290:	a0f1                	j	8000035c <_ntoa_long+0x18c>
    80000292:	00297913          	andi	s2,s2,2
    80000296:	4781                	li	a5,0
    80000298:	870a                	mv	a4,sp
    8000029a:	fc091ce3          	bnez	s2,80000272 <_ntoa_long+0xa2>
    8000029e:	40000993          	li	s3,1024
    800002a2:	870a                	mv	a4,sp
    800002a4:	02089e13          	slli	t3,a7,0x20
    800002a8:	020e5e13          	srli	t3,t3,0x20
    800002ac:	0c081263          	bnez	a6,80000370 <_ntoa_long+0x1a0>
    800002b0:	fbc7f1e3          	bgeu	a5,t3,80000252 <_ntoa_long+0x82>
    800002b4:	02000313          	li	t1,32
    800002b8:	00147293          	andi	t0,s0,1
    800002bc:	22678063          	beq	a5,t1,800004dc <_ntoa_long+0x30c>
    800002c0:	03000f13          	li	t5,48
    800002c4:	02000f93          	li	t6,32
    800002c8:	a019                	j	800002ce <_ntoa_long+0xfe>
    800002ca:	0ff78963          	beq	a5,t6,800003bc <_ntoa_long+0x1ec>
    800002ce:	0785                	addi	a5,a5,1
    800002d0:	00f70333          	add	t1,a4,a5
    800002d4:	ffe30fa3          	sb	t5,-1(t1)
    800002d8:	ffc7e9e3          	bltu	a5,t3,800002ca <_ntoa_long+0xfa>
    800002dc:	f6028be3          	beqz	t0,80000252 <_ntoa_long+0x82>
    800002e0:	02081e13          	slli	t3,a6,0x20
    800002e4:	020e5e13          	srli	t3,t3,0x20
    800002e8:	f7c7f5e3          	bgeu	a5,t3,80000252 <_ntoa_long+0x82>
    800002ec:	02000313          	li	t1,32
    800002f0:	03000f13          	li	t5,48
    800002f4:	02000f93          	li	t6,32
    800002f8:	00679563          	bne	a5,t1,80000302 <_ntoa_long+0x132>
    800002fc:	a425                	j	80000524 <_ntoa_long+0x354>
    800002fe:	15f78263          	beq	a5,t6,80000442 <_ntoa_long+0x272>
    80000302:	0785                	addi	a5,a5,1
    80000304:	00f70333          	add	t1,a4,a5
    80000308:	ffe30fa3          	sb	t5,-1(t1)
    8000030c:	ffc799e3          	bne	a5,t3,800002fe <_ntoa_long+0x12e>
    80000310:	b789                	j	80000252 <_ntoa_long+0x82>
    80000312:	04100293          	li	t0,65
    80000316:	bdcd                	j	80000208 <_ntoa_long+0x38>
    80000318:	1882                	slli	a7,a7,0x20
    8000031a:	0208d893          	srli	a7,a7,0x20
    8000031e:	10f88d63          	beq	a7,a5,80000438 <_ntoa_long+0x268>
    80000322:	02081893          	slli	a7,a6,0x20
    80000326:	0208d893          	srli	a7,a7,0x20
    8000032a:	10f88763          	beq	a7,a5,80000438 <_ntoa_long+0x268>
    8000032e:	48c1                	li	a7,16
    80000330:	111e8e63          	beq	t4,a7,8000044c <_ntoa_long+0x27c>
    80000334:	4889                	li	a7,2
    80000336:	0f1e8263          	beq	t4,a7,8000041a <_ntoa_long+0x24a>
    8000033a:	02000893          	li	a7,32
    8000033e:	01178f63          	beq	a5,a7,8000035c <_ntoa_long+0x18c>
    80000342:	88be                	mv	a7,a5
    80000344:	0785                	addi	a5,a5,1
    80000346:	02088893          	addi	a7,a7,32
    8000034a:	988a                	add	a7,a7,sp
    8000034c:	03000313          	li	t1,48
    80000350:	fe688023          	sb	t1,-32(a7)
    80000354:	02000893          	li	a7,32
    80000358:	f1179de3          	bne	a5,a7,80000272 <_ntoa_long+0xa2>
    8000035c:	88a2                	mv	a7,s0
    8000035e:	dafff0ef          	jal	8000010c <_out_rev>
    80000362:	60a6                	ld	ra,72(sp)
    80000364:	6406                	ld	s0,64(sp)
    80000366:	74e2                	ld	s1,56(sp)
    80000368:	7942                	ld	s2,48(sp)
    8000036a:	79a2                	ld	s3,40(sp)
    8000036c:	6161                	addi	sp,sp,80
    8000036e:	8082                	ret
    80000370:	00147293          	andi	t0,s0,1
    80000374:	8322                	mv	t1,s0
    80000376:	06028963          	beqz	t0,800003e8 <_ntoa_long+0x218>
    8000037a:	eccd                	bnez	s1,80000434 <_ntoa_long+0x264>
    8000037c:	00c37313          	andi	t1,t1,12
    80000380:	0a031a63          	bnez	t1,80000434 <_ntoa_long+0x264>
    80000384:	f5c7fee3          	bgeu	a5,t3,800002e0 <_ntoa_long+0x110>
    80000388:	02000313          	li	t1,32
    8000038c:	f2679ae3          	bne	a5,t1,800002c0 <_ntoa_long+0xf0>
    80000390:	0307ea63          	bltu	a5,a6,800003c4 <_ntoa_long+0x1f4>
    80000394:	02000793          	li	a5,32
    80000398:	fc0902e3          	beqz	s2,8000035c <_ntoa_long+0x18c>
    8000039c:	18099c63          	bnez	s3,80000534 <_ntoa_long+0x364>
    800003a0:	00f88463          	beq	a7,a5,800003a8 <_ntoa_long+0x1d8>
    800003a4:	f8f815e3          	bne	a6,a5,8000032e <_ntoa_long+0x15e>
    800003a8:	48fd                	li	a7,31
    800003aa:	4341                	li	t1,16
    800003ac:	126e8b63          	beq	t4,t1,800004e2 <_ntoa_long+0x312>
    800003b0:	4789                	li	a5,2
    800003b2:	14fe8763          	beq	t4,a5,80000500 <_ntoa_long+0x330>
    800003b6:	00188793          	addi	a5,a7,1
    800003ba:	b771                	j	80000346 <_ntoa_long+0x176>
    800003bc:	08028363          	beqz	t0,80000442 <_ntoa_long+0x272>
    800003c0:	0907f163          	bgeu	a5,a6,80000442 <_ntoa_long+0x272>
    800003c4:	f8090ce3          	beqz	s2,8000035c <_ntoa_long+0x18c>
    800003c8:	14099363          	bnez	s3,8000050e <_ntoa_long+0x33e>
    800003cc:	f6f891e3          	bne	a7,a5,8000032e <_ntoa_long+0x15e>
    800003d0:	48fd                	li	a7,31
    800003d2:	bfe1                	j	800003aa <_ntoa_long+0x1da>
    800003d4:	02078493          	addi	s1,a5,32
    800003d8:	002488b3          	add	a7,s1,sp
    800003dc:	02d00313          	li	t1,45
    800003e0:	fe688023          	sb	t1,-32(a7)
    800003e4:	0785                	addi	a5,a5,1
    800003e6:	bf9d                	j	8000035c <_ntoa_long+0x18c>
    800003e8:	e7c7f5e3          	bgeu	a5,t3,80000252 <_ntoa_long+0x82>
    800003ec:	02000313          	li	t1,32
    800003f0:	ec6798e3          	bne	a5,t1,800002c0 <_ntoa_long+0xf0>
    800003f4:	06090463          	beqz	s2,8000045c <_ntoa_long+0x28c>
    800003f8:	06099263          	bnez	s3,8000045c <_ntoa_long+0x28c>
    800003fc:	02000793          	li	a5,32
    80000400:	14fe0163          	beq	t3,a5,80000542 <_ntoa_long+0x372>
    80000404:	12f80f63          	beq	a6,a5,80000542 <_ntoa_long+0x372>
    80000408:	47c1                	li	a5,16
    8000040a:	04fe8963          	beq	t4,a5,8000045c <_ntoa_long+0x28c>
    8000040e:	4789                	li	a5,2
    80000410:	04fe8663          	beq	t4,a5,8000045c <_ntoa_long+0x28c>
    80000414:	02000793          	li	a5,32
    80000418:	b70d                	j	8000033a <_ntoa_long+0x16a>
    8000041a:	02000893          	li	a7,32
    8000041e:	f3178fe3          	beq	a5,a7,8000035c <_ntoa_long+0x18c>
    80000422:	02078893          	addi	a7,a5,32
    80000426:	988a                	add	a7,a7,sp
    80000428:	06200313          	li	t1,98
    8000042c:	fe688023          	sb	t1,-32(a7)
    80000430:	0785                	addi	a5,a5,1
    80000432:	b721                	j	8000033a <_ntoa_long+0x16a>
    80000434:	387d                	addiw	a6,a6,-1
    80000436:	b7b9                	j	80000384 <_ntoa_long+0x1b4>
    80000438:	fff78893          	addi	a7,a5,-1
    8000043c:	e20880e3          	beqz	a7,8000025c <_ntoa_long+0x8c>
    80000440:	b7ad                	j	800003aa <_ntoa_long+0x1da>
    80000442:	02000793          	li	a5,32
    80000446:	e00918e3          	bnez	s2,80000256 <_ntoa_long+0x86>
    8000044a:	bf09                	j	8000035c <_ntoa_long+0x18c>
    8000044c:	02047893          	andi	a7,s0,32
    80000450:	04089663          	bnez	a7,8000049c <_ntoa_long+0x2cc>
    80000454:	02000893          	li	a7,32
    80000458:	07179663          	bne	a5,a7,800004c4 <_ntoa_long+0x2f4>
    8000045c:	02000793          	li	a5,32
    80000460:	bdf5                	j	8000035c <_ntoa_long+0x18c>
    80000462:	00847893          	andi	a7,s0,8
    80000466:	ee088be3          	beqz	a7,8000035c <_ntoa_long+0x18c>
    8000046a:	02078493          	addi	s1,a5,32
    8000046e:	002488b3          	add	a7,s1,sp
    80000472:	02000313          	li	t1,32
    80000476:	fe688023          	sb	t1,-32(a7)
    8000047a:	0785                	addi	a5,a5,1
    8000047c:	b5c5                	j	8000035c <_ntoa_long+0x18c>
    8000047e:	02047793          	andi	a5,s0,32
    80000482:	eb95                	bnez	a5,800004b6 <_ntoa_long+0x2e6>
    80000484:	07800793          	li	a5,120
    80000488:	00f10023          	sb	a5,0(sp)
    8000048c:	03000793          	li	a5,48
    80000490:	00f100a3          	sb	a5,1(sp)
    80000494:	4789                	li	a5,2
    80000496:	de0480e3          	beqz	s1,80000276 <_ntoa_long+0xa6>
    8000049a:	bf2d                	j	800003d4 <_ntoa_long+0x204>
    8000049c:	02000893          	li	a7,32
    800004a0:	fb178ee3          	beq	a5,a7,8000045c <_ntoa_long+0x28c>
    800004a4:	02078893          	addi	a7,a5,32
    800004a8:	988a                	add	a7,a7,sp
    800004aa:	05800313          	li	t1,88
    800004ae:	fe688023          	sb	t1,-32(a7)
    800004b2:	0785                	addi	a5,a5,1
    800004b4:	b559                	j	8000033a <_ntoa_long+0x16a>
    800004b6:	678d                	lui	a5,0x3
    800004b8:	05878793          	addi	a5,a5,88 # 3058 <_start-0x7fffcfa8>
    800004bc:	00f11023          	sh	a5,0(sp)
    800004c0:	4789                	li	a5,2
    800004c2:	bfd1                	j	80000496 <_ntoa_long+0x2c6>
    800004c4:	02078893          	addi	a7,a5,32
    800004c8:	988a                	add	a7,a7,sp
    800004ca:	07800313          	li	t1,120
    800004ce:	fe688023          	sb	t1,-32(a7)
    800004d2:	0785                	addi	a5,a5,1
    800004d4:	b59d                	j	8000033a <_ntoa_long+0x16a>
    800004d6:	06200793          	li	a5,98
    800004da:	b77d                	j	80000488 <_ntoa_long+0x2b8>
    800004dc:	ea029ce3          	bnez	t0,80000394 <_ntoa_long+0x1c4>
    800004e0:	bf11                	j	800003f4 <_ntoa_long+0x224>
    800004e2:	ffe78893          	addi	a7,a5,-2
    800004e6:	02088893          	addi	a7,a7,32
    800004ea:	02047313          	andi	t1,s0,32
    800004ee:	988a                	add	a7,a7,sp
    800004f0:	17fd                	addi	a5,a5,-1
    800004f2:	00031963          	bnez	t1,80000504 <_ntoa_long+0x334>
    800004f6:	07800313          	li	t1,120
    800004fa:	fe688023          	sb	t1,-32(a7)
    800004fe:	b591                	j	80000342 <_ntoa_long+0x172>
    80000500:	87c6                	mv	a5,a7
    80000502:	b705                	j	80000422 <_ntoa_long+0x252>
    80000504:	05800313          	li	t1,88
    80000508:	fe688023          	sb	t1,-32(a7)
    8000050c:	bd1d                	j	80000342 <_ntoa_long+0x172>
    8000050e:	47c1                	li	a5,16
    80000510:	f4fe86e3          	beq	t4,a5,8000045c <_ntoa_long+0x28c>
    80000514:	4889                	li	a7,2
    80000516:	02000793          	li	a5,32
    8000051a:	e51e81e3          	beq	t4,a7,8000035c <_ntoa_long+0x18c>
    8000051e:	02000793          	li	a5,32
    80000522:	bd2d                	j	8000035c <_ntoa_long+0x18c>
    80000524:	e2090ce3          	beqz	s2,8000035c <_ntoa_long+0x18c>
    80000528:	fe0993e3          	bnez	s3,8000050e <_ntoa_long+0x33e>
    8000052c:	e6f88ee3          	beq	a7,a5,800003a8 <_ntoa_long+0x1d8>
    80000530:	e6f80ce3          	beq	a6,a5,800003a8 <_ntoa_long+0x1d8>
    80000534:	48c1                	li	a7,16
    80000536:	f31e83e3          	beq	t4,a7,8000045c <_ntoa_long+0x28c>
    8000053a:	4889                	li	a7,2
    8000053c:	df1e9fe3          	bne	t4,a7,8000033a <_ntoa_long+0x16a>
    80000540:	bd31                	j	8000035c <_ntoa_long+0x18c>
    80000542:	02000793          	li	a5,32
    80000546:	48fd                	li	a7,31
    80000548:	b58d                	j	800003aa <_ntoa_long+0x1da>

Disassembly of section .text._etoa:

000000008000054a <_etoa>:
    8000054a:	a2a528d3          	feq.d	a7,fa0,fa0
    8000054e:	7159                	addi	sp,sp,-112
    80000550:	f0a2                	sd	s0,96(sp)
    80000552:	e8ca                	sd	s2,80(sp)
    80000554:	e4ce                	sd	s3,72(sp)
    80000556:	e0d2                	sd	s4,64(sp)
    80000558:	fc56                	sd	s5,56(sp)
    8000055a:	f85a                	sd	s6,48(sp)
    8000055c:	f486                	sd	ra,104(sp)
    8000055e:	8a2a                	mv	s4,a0
    80000560:	8aae                	mv	s5,a1
    80000562:	8932                	mv	s2,a2
    80000564:	8b36                	mv	s6,a3
    80000566:	89be                	mv	s3,a5
    80000568:	8442                	mv	s0,a6
    8000056a:	28088163          	beqz	a7,800007ec <_etoa+0x2a2>
    8000056e:	00001797          	auipc	a5,0x1
    80000572:	f427b787          	fld	fa5,-190(a5) # 800014b0 <pow10.0+0x50>
    80000576:	a2a797d3          	flt.d	a5,fa5,fa0
    8000057a:	26079963          	bnez	a5,800007ec <_etoa+0x2a2>
    8000057e:	00001797          	auipc	a5,0x1
    80000582:	f3a7b787          	fld	fa5,-198(a5) # 800014b8 <pow10.0+0x58>
    80000586:	a2f517d3          	flt.d	a5,fa0,fa5
    8000058a:	26079163          	bnez	a5,800007ec <_etoa+0x2a2>
    8000058e:	f20007d3          	fmv.d.x	fa5,zero
    80000592:	eca6                	sd	s1,88(sp)
    80000594:	f45e                	sd	s7,40(sp)
    80000596:	a2f517d3          	flt.d	a5,fa0,fa5
    8000059a:	f062                	sd	s8,32(sp)
    8000059c:	ec66                	sd	s9,24(sp)
    8000059e:	e20506d3          	fmv.x.d	a3,fa0
    800005a2:	c789                	beqz	a5,800005ac <_etoa+0x62>
    800005a4:	22a517d3          	fneg.d	fa5,fa0
    800005a8:	e20786d3          	fmv.x.d	a3,fa5
    800005ac:	40047593          	andi	a1,s0,1024
    800005b0:	e191                	bnez	a1,800005b4 <_etoa+0x6a>
    800005b2:	4719                	li	a4,6
    800005b4:	0346d793          	srli	a5,a3,0x34
    800005b8:	7ff7f793          	andi	a5,a5,2047
    800005bc:	c017879b          	addiw	a5,a5,-1023
    800005c0:	d2078653          	fcvt.d.w	fa2,a5
    800005c4:	3ff00613          	li	a2,1023
    800005c8:	00c69793          	slli	a5,a3,0xc
    800005cc:	1652                	slli	a2,a2,0x34
    800005ce:	83b1                	srli	a5,a5,0xc
    800005d0:	8fd1                	or	a5,a5,a2
    800005d2:	00001517          	auipc	a0,0x1
    800005d6:	eee53687          	fld	fa3,-274(a0) # 800014c0 <pow10.0+0x60>
    800005da:	00001517          	auipc	a0,0x1
    800005de:	eee53707          	fld	fa4,-274(a0) # 800014c8 <pow10.0+0x68>
    800005e2:	72d67643          	fmadd.d	fa2,fa2,fa3,fa4
    800005e6:	f2078753          	fmv.d.x	fa4,a5
    800005ea:	00001617          	auipc	a2,0x1
    800005ee:	ee663787          	fld	fa5,-282(a2) # 800014d0 <pow10.0+0x70>
    800005f2:	00001797          	auipc	a5,0x1
    800005f6:	ee67b587          	fld	fa1,-282(a5) # 800014d8 <pow10.0+0x78>
    800005fa:	0af777d3          	fsub.d	fa5,fa4,fa5
    800005fe:	00001797          	auipc	a5,0x1
    80000602:	ee27b687          	fld	fa3,-286(a5) # 800014e0 <pow10.0+0x80>
    80000606:	00001797          	auipc	a5,0x1
    8000060a:	ee27b207          	fld	ft4,-286(a5) # 800014e8 <pow10.0+0x88>
    8000060e:	00001797          	auipc	a5,0x1
    80000612:	ee27b187          	fld	ft3,-286(a5) # 800014f0 <pow10.0+0x90>
    80000616:	00001797          	auipc	a5,0x1
    8000061a:	ee27b107          	fld	ft2,-286(a5) # 800014f8 <pow10.0+0x98>
    8000061e:	00001797          	auipc	a5,0x1
    80000622:	ee27b707          	fld	fa4,-286(a5) # 80001500 <pow10.0+0xa0>
    80000626:	00001797          	auipc	a5,0x1
    8000062a:	eea7b087          	fld	ft1,-278(a5) # 80001510 <pow10.0+0xb0>
    8000062e:	62b7f7c3          	fmadd.d	fa5,fa5,fa1,fa2
    80000632:	00001797          	auipc	a5,0x1
    80000636:	eee7b007          	fld	ft0,-274(a5) # 80001520 <pow10.0+0xc0>
    8000063a:	00001797          	auipc	a5,0x1
    8000063e:	ece7b587          	fld	fa1,-306(a5) # 80001508 <pow10.0+0xa8>
    80000642:	00001797          	auipc	a5,0x1
    80000646:	ed67b607          	fld	fa2,-298(a5) # 80001518 <pow10.0+0xb8>
    8000064a:	c2079653          	fcvt.w.d	a2,fa5,rtz
    8000064e:	d20607d3          	fcvt.d.w	fa5,a2
    80000652:	00060c9b          	sext.w	s9,a2
    80000656:	22d7f6c3          	fmadd.d	fa3,fa5,fa3,ft4
    8000065a:	c20697d3          	fcvt.w.d	a5,fa3,rtz
    8000065e:	d20786d3          	fcvt.d.w	fa3,a5
    80000662:	3ff7879b          	addiw	a5,a5,1023
    80000666:	17d2                	slli	a5,a5,0x34
    80000668:	1236f6d3          	fmul.d	fa3,fa3,ft3
    8000066c:	6a27f7c7          	fmsub.d	fa5,fa5,ft2,fa3
    80000670:	12f7f6d3          	fmul.d	fa3,fa5,fa5
    80000674:	0af67653          	fsub.d	fa2,fa2,fa5
    80000678:	02f7f7d3          	fadd.d	fa5,fa5,fa5
    8000067c:	1ae6f753          	fdiv.d	fa4,fa3,fa4
    80000680:	02b77753          	fadd.d	fa4,fa4,fa1
    80000684:	1ae6f753          	fdiv.d	fa4,fa3,fa4
    80000688:	02177753          	fadd.d	fa4,fa4,ft1
    8000068c:	1ae6f6d3          	fdiv.d	fa3,fa3,fa4
    80000690:	f2078753          	fmv.d.x	fa4,a5
    80000694:	02c6f6d3          	fadd.d	fa3,fa3,fa2
    80000698:	1ad7f7d3          	fdiv.d	fa5,fa5,fa3
    8000069c:	0207f7d3          	fadd.d	fa5,fa5,ft0
    800006a0:	12e7f7d3          	fmul.d	fa5,fa5,fa4
    800006a4:	f2068753          	fmv.d.x	fa4,a3
    800006a8:	a2f717d3          	flt.d	a5,fa4,fa5
    800006ac:	e20788d3          	fmv.x.d	a7,fa5
    800006b0:	c799                	beqz	a5,800006be <_etoa+0x174>
    800006b2:	1ab7f7d3          	fdiv.d	fa5,fa5,fa1
    800006b6:	fff60c9b          	addiw	s9,a2,-1
    800006ba:	e20788d3          	fmv.x.d	a7,fa5
    800006be:	0c600793          	li	a5,198
    800006c2:	063c8c1b          	addiw	s8,s9,99
    800006c6:	0187bc33          	sltu	s8,a5,s8
    800006ca:	03441793          	slli	a5,s0,0x34
    800006ce:	0c11                	addi	s8,s8,4
    800006d0:	0407d163          	bgez	a5,80000712 <_etoa+0x1c8>
    800006d4:	f2068753          	fmv.d.x	fa4,a3
    800006d8:	00001797          	auipc	a5,0x1
    800006dc:	e507b787          	fld	fa5,-432(a5) # 80001528 <pow10.0+0xc8>
    800006e0:	a2e787d3          	fle.d	a5,fa5,fa4
    800006e4:	12078c63          	beqz	a5,8000081c <_etoa+0x2d2>
    800006e8:	00001797          	auipc	a5,0x1
    800006ec:	e487b787          	fld	fa5,-440(a5) # 80001530 <pow10.0+0xd0>
    800006f0:	a2f717d3          	flt.d	a5,fa4,fa5
    800006f4:	12078463          	beqz	a5,8000081c <_etoa+0x2d2>
    800006f8:	0007079b          	sext.w	a5,a4
    800006fc:	4701                	li	a4,0
    800006fe:	00fcd663          	bge	s9,a5,8000070a <_etoa+0x1c0>
    80000702:	419787bb          	subw	a5,a5,s9
    80000706:	fff7871b          	addiw	a4,a5,-1
    8000070a:	40046413          	ori	s0,s0,1024
    8000070e:	4c01                	li	s8,0
    80000710:	4c81                	li	s9,0
    80000712:	4781                	li	a5,0
    80000714:	013c7463          	bgeu	s8,s3,8000071c <_etoa+0x1d2>
    80000718:	418987bb          	subw	a5,s3,s8
    8000071c:	00247b93          	andi	s7,s0,2
    80000720:	000b8763          	beqz	s7,8000072e <_etoa+0x1e4>
    80000724:	001c3613          	seqz	a2,s8
    80000728:	40c00633          	neg	a2,a2
    8000072c:	8ff1                	and	a5,a5,a2
    8000072e:	0c0c9e63          	bnez	s9,8000080a <_etoa+0x2c0>
    80000732:	f20007d3          	fmv.d.x	fa5,zero
    80000736:	a2f51653          	flt.d	a2,fa0,fa5
    8000073a:	c619                	beqz	a2,80000748 <_etoa+0x1fe>
    8000073c:	f20687d3          	fmv.d.x	fa5,a3
    80000740:	22f797d3          	fneg.d	fa5,fa5
    80000744:	e20786d3          	fmv.x.d	a3,fa5
    80000748:	f2068553          	fmv.d.x	fa0,a3
    8000074c:	787d                	lui	a6,0xfffff
    8000074e:	7ff80813          	addi	a6,a6,2047 # fffffffffffff7ff <_pmem_end+0xffffffff77fff7ff>
    80000752:	01047833          	and	a6,s0,a6
    80000756:	86da                	mv	a3,s6
    80000758:	864a                	mv	a2,s2
    8000075a:	85d6                	mv	a1,s5
    8000075c:	8552                	mv	a0,s4
    8000075e:	0ca000ef          	jal	80000828 <_ftoa>
    80000762:	84aa                	mv	s1,a0
    80000764:	060c0663          	beqz	s8,800007d0 <_etoa+0x286>
    80000768:	02047413          	andi	s0,s0,32
    8000076c:	06500513          	li	a0,101
    80000770:	c019                	beqz	s0,80000776 <_etoa+0x22c>
    80000772:	04500513          	li	a0,69
    80000776:	8626                	mv	a2,s1
    80000778:	86da                	mv	a3,s6
    8000077a:	85d6                	mv	a1,s5
    8000077c:	9a02                	jalr	s4
    8000077e:	41fcd71b          	sraiw	a4,s9,0x1f
    80000782:	0485                	addi	s1,s1,1
    80000784:	00ecc6b3          	xor	a3,s9,a4
    80000788:	4795                	li	a5,5
    8000078a:	3c7d                	addiw	s8,s8,-1
    8000078c:	e43e                	sd	a5,8(sp)
    8000078e:	40e6873b          	subw	a4,a3,a4
    80000792:	8626                	mv	a2,s1
    80000794:	e062                	sd	s8,0(sp)
    80000796:	4881                	li	a7,0
    80000798:	4829                	li	a6,10
    8000079a:	01fcd79b          	srliw	a5,s9,0x1f
    8000079e:	86da                	mv	a3,s6
    800007a0:	85d6                	mv	a1,s5
    800007a2:	8552                	mv	a0,s4
    800007a4:	a2dff0ef          	jal	800001d0 <_ntoa_long>
    800007a8:	84aa                	mv	s1,a0
    800007aa:	020b8363          	beqz	s7,800007d0 <_etoa+0x286>
    800007ae:	1982                	slli	s3,s3,0x20
    800007b0:	41250933          	sub	s2,a0,s2
    800007b4:	0209d993          	srli	s3,s3,0x20
    800007b8:	01397c63          	bgeu	s2,s3,800007d0 <_etoa+0x286>
    800007bc:	8626                	mv	a2,s1
    800007be:	86da                	mv	a3,s6
    800007c0:	85d6                	mv	a1,s5
    800007c2:	02000513          	li	a0,32
    800007c6:	0905                	addi	s2,s2,1
    800007c8:	0485                	addi	s1,s1,1
    800007ca:	9a02                	jalr	s4
    800007cc:	ff3968e3          	bltu	s2,s3,800007bc <_etoa+0x272>
    800007d0:	70a6                	ld	ra,104(sp)
    800007d2:	7406                	ld	s0,96(sp)
    800007d4:	7ba2                	ld	s7,40(sp)
    800007d6:	7c02                	ld	s8,32(sp)
    800007d8:	6ce2                	ld	s9,24(sp)
    800007da:	6946                	ld	s2,80(sp)
    800007dc:	69a6                	ld	s3,72(sp)
    800007de:	6a06                	ld	s4,64(sp)
    800007e0:	7ae2                	ld	s5,56(sp)
    800007e2:	7b42                	ld	s6,48(sp)
    800007e4:	8526                	mv	a0,s1
    800007e6:	64e6                	ld	s1,88(sp)
    800007e8:	6165                	addi	sp,sp,112
    800007ea:	8082                	ret
    800007ec:	8822                	mv	a6,s0
    800007ee:	7406                	ld	s0,96(sp)
    800007f0:	70a6                	ld	ra,104(sp)
    800007f2:	87ce                	mv	a5,s3
    800007f4:	86da                	mv	a3,s6
    800007f6:	69a6                	ld	s3,72(sp)
    800007f8:	7b42                	ld	s6,48(sp)
    800007fa:	864a                	mv	a2,s2
    800007fc:	85d6                	mv	a1,s5
    800007fe:	6946                	ld	s2,80(sp)
    80000800:	7ae2                	ld	s5,56(sp)
    80000802:	8552                	mv	a0,s4
    80000804:	6a06                	ld	s4,64(sp)
    80000806:	6165                	addi	sp,sp,112
    80000808:	a005                	j	80000828 <_ftoa>
    8000080a:	f20687d3          	fmv.d.x	fa5,a3
    8000080e:	f2088753          	fmv.d.x	fa4,a7
    80000812:	1ae7f7d3          	fdiv.d	fa5,fa5,fa4
    80000816:	e20786d3          	fmv.x.d	a3,fa5
    8000081a:	bf21                	j	80000732 <_etoa+0x1e8>
    8000081c:	ee070be3          	beqz	a4,80000712 <_etoa+0x1c8>
    80000820:	ee0589e3          	beqz	a1,80000712 <_etoa+0x1c8>
    80000824:	377d                	addiw	a4,a4,-1
    80000826:	b5f5                	j	80000712 <_etoa+0x1c8>

Disassembly of section .text._ftoa:

0000000080000828 <_ftoa>:
    80000828:	a2a52353          	feq.d	t1,fa0,fa0
    8000082c:	88c2                	mv	a7,a6
    8000082e:	18030563          	beqz	t1,800009b8 <_ftoa+0x190>
    80000832:	00001817          	auipc	a6,0x1
    80000836:	c8683787          	fld	fa5,-890(a6) # 800014b8 <pow10.0+0x58>
    8000083a:	a2f51853          	flt.d	a6,fa0,fa5
    8000083e:	1c081163          	bnez	a6,80000a00 <_ftoa+0x1d8>
    80000842:	7139                	addi	sp,sp,-64
    80000844:	f426                	sd	s1,40(sp)
    80000846:	84b6                	mv	s1,a3
    80000848:	00001697          	auipc	a3,0x1
    8000084c:	c686b787          	fld	fa5,-920(a3) # 800014b0 <pow10.0+0x50>
    80000850:	a2a796d3          	flt.d	a3,fa5,fa0
    80000854:	f822                	sd	s0,48(sp)
    80000856:	fc06                	sd	ra,56(sp)
    80000858:	82aa                	mv	t0,a0
    8000085a:	83ae                	mv	t2,a1
    8000085c:	8432                	mv	s0,a2
    8000085e:	12069963          	bnez	a3,80000990 <_ftoa+0x168>
    80000862:	00001697          	auipc	a3,0x1
    80000866:	cd66b787          	fld	fa5,-810(a3) # 80001538 <pow10.0+0xd8>
    8000086a:	a2a796d3          	flt.d	a3,fa5,fa0
    8000086e:	16069f63          	bnez	a3,800009ec <_ftoa+0x1c4>
    80000872:	00001697          	auipc	a3,0x1
    80000876:	cce6b707          	fld	fa4,-818(a3) # 80001540 <pow10.0+0xe0>
    8000087a:	a2e516d3          	flt.d	a3,fa0,fa4
    8000087e:	16069763          	bnez	a3,800009ec <_ftoa+0x1c4>
    80000882:	f2000753          	fmv.d.x	fa4,zero
    80000886:	4581                	li	a1,0
    80000888:	a2e516d3          	flt.d	a3,fa0,fa4
    8000088c:	14069c63          	bnez	a3,800009e4 <_ftoa+0x1bc>
    80000890:	4008f693          	andi	a3,a7,1024
    80000894:	12068a63          	beqz	a3,800009c8 <_ftoa+0x1a0>
    80000898:	46a5                	li	a3,9
    8000089a:	2ae6fd63          	bgeu	a3,a4,80000b54 <_ftoa+0x32c>
    8000089e:	ff77031b          	addiw	t1,a4,-9
    800008a2:	1302                	slli	t1,t1,0x20
    800008a4:	02035313          	srli	t1,t1,0x20
    800008a8:	4e01                	li	t3,0
    800008aa:	8f0a                	mv	t5,sp
    800008ac:	03000613          	li	a2,48
    800008b0:	02000693          	li	a3,32
    800008b4:	0e05                	addi	t3,t3,1
    800008b6:	01cf0eb3          	add	t4,t5,t3
    800008ba:	fece8fa3          	sb	a2,-1(t4)
    800008be:	41c70fbb          	subw	t6,a4,t3
    800008c2:	20de0f63          	beq	t3,a3,80000ae0 <_ftoa+0x2b8>
    800008c6:	fe6e17e3          	bne	t3,t1,800008b4 <_ftoa+0x8c>
    800008ca:	22f78753          	fmv.d	fa4,fa5
    800008ce:	c20516d3          	fcvt.w.d	a3,fa0,rtz
    800008d2:	00001717          	auipc	a4,0x1
    800008d6:	c1673687          	fld	fa3,-1002(a4) # 800014e8 <pow10.0+0x88>
    800008da:	d20687d3          	fcvt.d.w	fa5,a3
    800008de:	00068e1b          	sext.w	t3,a3
    800008e2:	0af577d3          	fsub.d	fa5,fa0,fa5
    800008e6:	12e7f7d3          	fmul.d	fa5,fa5,fa4
    800008ea:	c2379753          	fcvt.lu.d	a4,fa5,rtz
    800008ee:	d2377653          	fcvt.d.lu	fa2,a4
    800008f2:	0ac7f7d3          	fsub.d	fa5,fa5,fa2
    800008f6:	a2f69653          	flt.d	a2,fa3,fa5
    800008fa:	1a060163          	beqz	a2,80000a9c <_ftoa+0x274>
    800008fe:	0705                	addi	a4,a4,1
    80000900:	d23777d3          	fcvt.d.lu	fa5,a4
    80000904:	a2f70653          	fle.d	a2,fa4,fa5
    80000908:	c601                	beqz	a2,80000910 <_ftoa+0xe8>
    8000090a:	00168e1b          	addiw	t3,a3,1
    8000090e:	4701                	li	a4,0
    80000910:	140f9563          	bnez	t6,80000a5a <_ftoa+0x232>
    80000914:	d20e07d3          	fcvt.d.w	fa5,t3
    80000918:	0af57553          	fsub.d	fa0,fa0,fa5
    8000091c:	a2d51753          	flt.d	a4,fa0,fa3
    80000920:	e709                	bnez	a4,8000092a <_ftoa+0x102>
    80000922:	001e7713          	andi	a4,t3,1
    80000926:	c311                	beqz	a4,8000092a <_ftoa+0x102>
    80000928:	2e05                	addiw	t3,t3,1
    8000092a:	02000613          	li	a2,32
    8000092e:	4729                	li	a4,10
    80000930:	0ec30063          	beq	t1,a2,80000a10 <_ftoa+0x1e8>
    80000934:	02ee6ebb          	remw	t4,t3,a4
    80000938:	0305                	addi	t1,t1,1
    8000093a:	006f06b3          	add	a3,t5,t1
    8000093e:	02ee4e3b          	divw	t3,t3,a4
    80000942:	030e8e9b          	addiw	t4,t4,48
    80000946:	ffd68fa3          	sb	t4,-1(a3)
    8000094a:	fe0e13e3          	bnez	t3,80000930 <_ftoa+0x108>
    8000094e:	0038f713          	andi	a4,a7,3
    80000952:	4685                	li	a3,1
    80000954:	20d70e63          	beq	a4,a3,80000b70 <_ftoa+0x348>
    80000958:	02000713          	li	a4,32
    8000095c:	00e30c63          	beq	t1,a4,80000974 <_ftoa+0x14c>
    80000960:	18058963          	beqz	a1,80000af2 <_ftoa+0x2ca>
    80000964:	02030713          	addi	a4,t1,32
    80000968:	970a                	add	a4,a4,sp
    8000096a:	02d00693          	li	a3,45
    8000096e:	fed70023          	sb	a3,-32(a4)
    80000972:	0305                	addi	t1,t1,1
    80000974:	883e                	mv	a6,a5
    80000976:	86a6                	mv	a3,s1
    80000978:	8622                	mv	a2,s0
    8000097a:	879a                	mv	a5,t1
    8000097c:	877a                	mv	a4,t5
    8000097e:	859e                	mv	a1,t2
    80000980:	8516                	mv	a0,t0
    80000982:	f8aff0ef          	jal	8000010c <_out_rev>
    80000986:	70e2                	ld	ra,56(sp)
    80000988:	7442                	ld	s0,48(sp)
    8000098a:	74a2                	ld	s1,40(sp)
    8000098c:	6121                	addi	sp,sp,64
    8000098e:	8082                	ret
    80000990:	0048f713          	andi	a4,a7,4
    80000994:	e331                	bnez	a4,800009d8 <_ftoa+0x1b0>
    80000996:	00001717          	auipc	a4,0x1
    8000099a:	91270713          	addi	a4,a4,-1774 # 800012a8 <printf_+0x54>
    8000099e:	468d                	li	a3,3
    800009a0:	8622                	mv	a2,s0
    800009a2:	7442                	ld	s0,48(sp)
    800009a4:	70e2                	ld	ra,56(sp)
    800009a6:	883e                	mv	a6,a5
    800009a8:	87b6                	mv	a5,a3
    800009aa:	86a6                	mv	a3,s1
    800009ac:	74a2                	ld	s1,40(sp)
    800009ae:	859e                	mv	a1,t2
    800009b0:	8516                	mv	a0,t0
    800009b2:	6121                	addi	sp,sp,64
    800009b4:	f58ff06f          	j	8000010c <_out_rev>
    800009b8:	883e                	mv	a6,a5
    800009ba:	00001717          	auipc	a4,0x1
    800009be:	8f670713          	addi	a4,a4,-1802 # 800012b0 <printf_+0x5c>
    800009c2:	478d                	li	a5,3
    800009c4:	f48ff06f          	j	8000010c <_out_rev>
    800009c8:	00001717          	auipc	a4,0x1
    800009cc:	b6873707          	fld	fa4,-1176(a4) # 80001530 <pow10.0+0xd0>
    800009d0:	4f99                	li	t6,6
    800009d2:	4301                	li	t1,0
    800009d4:	8f0a                	mv	t5,sp
    800009d6:	bde5                	j	800008ce <_ftoa+0xa6>
    800009d8:	00001717          	auipc	a4,0x1
    800009dc:	8c870713          	addi	a4,a4,-1848 # 800012a0 <printf_+0x4c>
    800009e0:	4691                	li	a3,4
    800009e2:	bf7d                	j	800009a0 <_ftoa+0x178>
    800009e4:	0aa77553          	fsub.d	fa0,fa4,fa0
    800009e8:	4585                	li	a1,1
    800009ea:	b55d                	j	80000890 <_ftoa+0x68>
    800009ec:	8622                	mv	a2,s0
    800009ee:	7442                	ld	s0,48(sp)
    800009f0:	70e2                	ld	ra,56(sp)
    800009f2:	86a6                	mv	a3,s1
    800009f4:	74a2                	ld	s1,40(sp)
    800009f6:	8846                	mv	a6,a7
    800009f8:	859e                	mv	a1,t2
    800009fa:	8516                	mv	a0,t0
    800009fc:	6121                	addi	sp,sp,64
    800009fe:	b6b1                	j	8000054a <_etoa>
    80000a00:	883e                	mv	a6,a5
    80000a02:	00001717          	auipc	a4,0x1
    80000a06:	8b670713          	addi	a4,a4,-1866 # 800012b8 <printf_+0x64>
    80000a0a:	4791                	li	a5,4
    80000a0c:	f00ff06f          	j	8000010c <_out_rev>
    80000a10:	0038f713          	andi	a4,a7,3
    80000a14:	4685                	li	a3,1
    80000a16:	f4d71fe3          	bne	a4,a3,80000974 <_ftoa+0x14c>
    80000a1a:	dfa9                	beqz	a5,80000974 <_ftoa+0x14c>
    80000a1c:	12059563          	bnez	a1,80000b46 <_ftoa+0x31e>
    80000a20:	00c8f713          	andi	a4,a7,12
    80000a24:	12071163          	bnez	a4,80000b46 <_ftoa+0x31e>
    80000a28:	02079613          	slli	a2,a5,0x20
    80000a2c:	9201                	srli	a2,a2,0x20
    80000a2e:	0ac37e63          	bgeu	t1,a2,80000aea <_ftoa+0x2c2>
    80000a32:	02000713          	li	a4,32
    80000a36:	03000693          	li	a3,48
    80000a3a:	02000513          	li	a0,32
    80000a3e:	00e30b63          	beq	t1,a4,80000a54 <_ftoa+0x22c>
    80000a42:	0305                	addi	t1,t1,1
    80000a44:	006f0733          	add	a4,t5,t1
    80000a48:	fed70fa3          	sb	a3,-1(a4)
    80000a4c:	f0c306e3          	beq	t1,a2,80000958 <_ftoa+0x130>
    80000a50:	fea319e3          	bne	t1,a0,80000a42 <_ftoa+0x21a>
    80000a54:	02000313          	li	t1,32
    80000a58:	bf31                	j	80000974 <_ftoa+0x14c>
    80000a5a:	fe0f809b          	addiw	ra,t6,-32
    80000a5e:	f04a                	sd	s2,32(sp)
    80000a60:	006080bb          	addw	ra,ra,t1
    80000a64:	4629                	li	a2,10
    80000a66:	4925                	li	s2,9
    80000a68:	a005                	j	80000a88 <_ftoa+0x260>
    80000a6a:	02c776b3          	remu	a3,a4,a2
    80000a6e:	ffff881b          	addiw	a6,t6,-1
    80000a72:	0306869b          	addiw	a3,a3,48
    80000a76:	fed50fa3          	sb	a3,-1(a0)
    80000a7a:	02c756b3          	divu	a3,a4,a2
    80000a7e:	02e97663          	bgeu	s2,a4,80000aaa <_ftoa+0x282>
    80000a82:	8fc2                	mv	t6,a6
    80000a84:	8376                	mv	t1,t4
    80000a86:	8736                	mv	a4,a3
    80000a88:	00130e93          	addi	t4,t1,1
    80000a8c:	01df0533          	add	a0,t5,t4
    80000a90:	fc1f9de3          	bne	t6,ra,80000a6a <_ftoa+0x242>
    80000a94:	7902                	ld	s2,32(sp)
    80000a96:	02000313          	li	t1,32
    80000a9a:	bd41                	j	8000092a <_ftoa+0x102>
    80000a9c:	a2d796d3          	flt.d	a3,fa5,fa3
    80000aa0:	e60698e3          	bnez	a3,80000910 <_ftoa+0xe8>
    80000aa4:	eb59                	bnez	a4,80000b3a <_ftoa+0x312>
    80000aa6:	0705                	addi	a4,a4,1
    80000aa8:	b5a5                	j	80000910 <_ftoa+0xe8>
    80000aaa:	02000713          	li	a4,32
    80000aae:	feee83e3          	beq	t4,a4,80000a94 <_ftoa+0x26c>
    80000ab2:	3ff9                	addiw	t6,t6,-2
    80000ab4:	04080f63          	beqz	a6,80000b12 <_ftoa+0x2ea>
    80000ab8:	1f82                	slli	t6,t6,0x20
    80000aba:	0309                	addi	t1,t1,2
    80000abc:	020fdf93          	srli	t6,t6,0x20
    80000ac0:	937e                	add	t1,t1,t6
    80000ac2:	03000613          	li	a2,48
    80000ac6:	02000693          	li	a3,32
    80000aca:	a019                	j	80000ad0 <_ftoa+0x2a8>
    80000acc:	046e8363          	beq	t4,t1,80000b12 <_ftoa+0x2ea>
    80000ad0:	0e85                	addi	t4,t4,1
    80000ad2:	01df0733          	add	a4,t5,t4
    80000ad6:	fec70fa3          	sb	a2,-1(a4)
    80000ada:	fede99e3          	bne	t4,a3,80000acc <_ftoa+0x2a4>
    80000ade:	bf5d                	j	80000a94 <_ftoa+0x26c>
    80000ae0:	22f78753          	fmv.d	fa4,fa5
    80000ae4:	02000313          	li	t1,32
    80000ae8:	b3dd                	j	800008ce <_ftoa+0xa6>
    80000aea:	02000713          	li	a4,32
    80000aee:	e8e303e3          	beq	t1,a4,80000974 <_ftoa+0x14c>
    80000af2:	0048f713          	andi	a4,a7,4
    80000af6:	eb0d                	bnez	a4,80000b28 <_ftoa+0x300>
    80000af8:	0088f713          	andi	a4,a7,8
    80000afc:	e6070ce3          	beqz	a4,80000974 <_ftoa+0x14c>
    80000b00:	02030713          	addi	a4,t1,32
    80000b04:	970a                	add	a4,a4,sp
    80000b06:	02000693          	li	a3,32
    80000b0a:	fed70023          	sb	a3,-32(a4)
    80000b0e:	0305                	addi	t1,t1,1
    80000b10:	b595                	j	80000974 <_ftoa+0x14c>
    80000b12:	020e8713          	addi	a4,t4,32
    80000b16:	970a                	add	a4,a4,sp
    80000b18:	02e00693          	li	a3,46
    80000b1c:	fed70023          	sb	a3,-32(a4)
    80000b20:	7902                	ld	s2,32(sp)
    80000b22:	001e8313          	addi	t1,t4,1
    80000b26:	b511                	j	8000092a <_ftoa+0x102>
    80000b28:	02030713          	addi	a4,t1,32
    80000b2c:	970a                	add	a4,a4,sp
    80000b2e:	02b00693          	li	a3,43
    80000b32:	fed70023          	sb	a3,-32(a4)
    80000b36:	0305                	addi	t1,t1,1
    80000b38:	bd35                	j	80000974 <_ftoa+0x14c>
    80000b3a:	00177693          	andi	a3,a4,1
    80000b3e:	dc0689e3          	beqz	a3,80000910 <_ftoa+0xe8>
    80000b42:	0705                	addi	a4,a4,1
    80000b44:	b3f1                	j	80000910 <_ftoa+0xe8>
    80000b46:	37fd                	addiw	a5,a5,-1
    80000b48:	02079613          	slli	a2,a5,0x20
    80000b4c:	9201                	srli	a2,a2,0x20
    80000b4e:	eec362e3          	bltu	t1,a2,80000a32 <_ftoa+0x20a>
    80000b52:	b519                	j	80000958 <_ftoa+0x130>
    80000b54:	02071693          	slli	a3,a4,0x20
    80000b58:	01d6d613          	srli	a2,a3,0x1d
    80000b5c:	00001697          	auipc	a3,0x1
    80000b60:	90468693          	addi	a3,a3,-1788 # 80001460 <pow10.0>
    80000b64:	96b2                	add	a3,a3,a2
    80000b66:	2298                	fld	fa4,0(a3)
    80000b68:	8fba                	mv	t6,a4
    80000b6a:	4301                	li	t1,0
    80000b6c:	8f0a                	mv	t5,sp
    80000b6e:	b385                	j	800008ce <_ftoa+0xa6>
    80000b70:	de0784e3          	beqz	a5,80000958 <_ftoa+0x130>
    80000b74:	b565                	j	80000a1c <_ftoa+0x1f4>

Disassembly of section .text._out_char:

0000000080000b76 <_out_char>:
    80000b76:	e111                	bnez	a0,80000b7a <_out_char+0x4>
    80000b78:	8082                	ret
    80000b7a:	d0cff06f          	j	80000086 <_putc>

Disassembly of section .text._vsnprintf:

0000000080000b7e <_vsnprintf>:
    80000b7e:	7171                	addi	sp,sp,-176
    80000b80:	e94a                	sd	s2,144(sp)
    80000b82:	e54e                	sd	s3,136(sp)
    80000b84:	e152                	sd	s4,128(sp)
    80000b86:	f0e2                	sd	s8,96(sp)
    80000b88:	ece6                	sd	s9,88(sp)
    80000b8a:	f506                	sd	ra,168(sp)
    80000b8c:	f122                	sd	s0,160(sp)
    80000b8e:	e4ee                	sd	s11,72(sp)
    80000b90:	89ae                	mv	s3,a1
    80000b92:	8932                	mv	s2,a2
    80000b94:	8cb6                	mv	s9,a3
    80000b96:	8c3a                	mv	s8,a4
    80000b98:	8a2a                	mv	s4,a0
    80000b9a:	38058863          	beqz	a1,80000f2a <_vsnprintf+0x3ac>
    80000b9e:	000cc503          	lbu	a0,0(s9)
    80000ba2:	4d81                	li	s11,0
    80000ba4:	38050c63          	beqz	a0,80000f3c <_vsnprintf+0x3be>
    80000ba8:	ed26                	sd	s1,152(sp)
    80000baa:	fcd6                	sd	s5,120(sp)
    80000bac:	f8da                	sd	s6,112(sp)
    80000bae:	e8ea                	sd	s10,80(sp)
    80000bb0:	f4de                	sd	s7,104(sp)
    80000bb2:	02500b13          	li	s6,37
    80000bb6:	44c1                	li	s1,16
    80000bb8:	00000d17          	auipc	s10,0x0
    80000bbc:	708d0d13          	addi	s10,s10,1800 # 800012c0 <__am_mainargs+0x3>
    80000bc0:	4aa5                	li	s5,9
    80000bc2:	a811                	j	80000bd6 <_vsnprintf+0x58>
    80000bc4:	866e                	mv	a2,s11
    80000bc6:	86ca                	mv	a3,s2
    80000bc8:	85ce                	mv	a1,s3
    80000bca:	0d85                	addi	s11,s11,1
    80000bcc:	9a02                	jalr	s4
    80000bce:	000cc503          	lbu	a0,0(s9)
    80000bd2:	12050a63          	beqz	a0,80000d06 <_vsnprintf+0x188>
    80000bd6:	0c85                	addi	s9,s9,1
    80000bd8:	ff6516e3          	bne	a0,s6,80000bc4 <_vsnprintf+0x46>
    80000bdc:	4401                	li	s0,0
    80000bde:	000cc503          	lbu	a0,0(s9)
    80000be2:	001c8693          	addi	a3,s9,1
    80000be6:	fe05079b          	addiw	a5,a0,-32
    80000bea:	0ff7f793          	zext.b	a5,a5
    80000bee:	00f4e763          	bltu	s1,a5,80000bfc <_vsnprintf+0x7e>
    80000bf2:	078a                	slli	a5,a5,0x2
    80000bf4:	97ea                	add	a5,a5,s10
    80000bf6:	439c                	lw	a5,0(a5)
    80000bf8:	97ea                	add	a5,a5,s10
    80000bfa:	8782                	jr	a5
    80000bfc:	fd05079b          	addiw	a5,a0,-48
    80000c00:	0ff7f793          	zext.b	a5,a5
    80000c04:	0afaf563          	bgeu	s5,a5,80000cae <_vsnprintf+0x130>
    80000c08:	02a00713          	li	a4,42
    80000c0c:	4781                	li	a5,0
    80000c0e:	18e50163          	beq	a0,a4,80000d90 <_vsnprintf+0x212>
    80000c12:	02e00713          	li	a4,46
    80000c16:	4b81                	li	s7,0
    80000c18:	0ce50363          	beq	a0,a4,80000cde <_vsnprintf+0x160>
    80000c1c:	f985071b          	addiw	a4,a0,-104
    80000c20:	0ff77713          	zext.b	a4,a4
    80000c24:	4649                	li	a2,18
    80000c26:	04e66a63          	bltu	a2,a4,80000c7a <_vsnprintf+0xfc>
    80000c2a:	00000617          	auipc	a2,0x0
    80000c2e:	6da60613          	addi	a2,a2,1754 # 80001304 <__am_mainargs+0x47>
    80000c32:	070a                	slli	a4,a4,0x2
    80000c34:	9732                	add	a4,a4,a2
    80000c36:	4318                	lw	a4,0(a4)
    80000c38:	9732                	add	a4,a4,a2
    80000c3a:	8702                	jr	a4
    80000c3c:	00146413          	ori	s0,s0,1
    80000c40:	2401                	sext.w	s0,s0
    80000c42:	8cb6                	mv	s9,a3
    80000c44:	bf69                	j	80000bde <_vsnprintf+0x60>
    80000c46:	00246413          	ori	s0,s0,2
    80000c4a:	2401                	sext.w	s0,s0
    80000c4c:	8cb6                	mv	s9,a3
    80000c4e:	bf41                	j	80000bde <_vsnprintf+0x60>
    80000c50:	00446413          	ori	s0,s0,4
    80000c54:	2401                	sext.w	s0,s0
    80000c56:	8cb6                	mv	s9,a3
    80000c58:	b759                	j	80000bde <_vsnprintf+0x60>
    80000c5a:	01046413          	ori	s0,s0,16
    80000c5e:	2401                	sext.w	s0,s0
    80000c60:	8cb6                	mv	s9,a3
    80000c62:	bfb5                	j	80000bde <_vsnprintf+0x60>
    80000c64:	00846413          	ori	s0,s0,8
    80000c68:	2401                	sext.w	s0,s0
    80000c6a:	8cb6                	mv	s9,a3
    80000c6c:	bf8d                	j	80000bde <_vsnprintf+0x60>
    80000c6e:	001cc503          	lbu	a0,1(s9)
    80000c72:	10046413          	ori	s0,s0,256
    80000c76:	2401                	sext.w	s0,s0
    80000c78:	0685                	addi	a3,a3,1
    80000c7a:	06700713          	li	a4,103
    80000c7e:	8cb6                	mv	s9,a3
    80000c80:	0aa76e63          	bltu	a4,a0,80000d3c <_vsnprintf+0x1be>
    80000c84:	02400713          	li	a4,36
    80000c88:	f2a77ee3          	bgeu	a4,a0,80000bc4 <_vsnprintf+0x46>
    80000c8c:	fdb5071b          	addiw	a4,a0,-37
    80000c90:	0ff77713          	zext.b	a4,a4
    80000c94:	04200693          	li	a3,66
    80000c98:	f2e6e6e3          	bltu	a3,a4,80000bc4 <_vsnprintf+0x46>
    80000c9c:	00000697          	auipc	a3,0x0
    80000ca0:	6b468693          	addi	a3,a3,1716 # 80001350 <__am_mainargs+0x93>
    80000ca4:	070a                	slli	a4,a4,0x2
    80000ca6:	9736                	add	a4,a4,a3
    80000ca8:	4318                	lw	a4,0(a4)
    80000caa:	9736                	add	a4,a4,a3
    80000cac:	8702                	jr	a4
    80000cae:	4781                	li	a5,0
    80000cb0:	0027971b          	slliw	a4,a5,0x2
    80000cb4:	9f3d                	addw	a4,a4,a5
    80000cb6:	0017171b          	slliw	a4,a4,0x1
    80000cba:	9f29                	addw	a4,a4,a0
    80000cbc:	0006c503          	lbu	a0,0(a3)
    80000cc0:	fd07079b          	addiw	a5,a4,-48
    80000cc4:	8cb6                	mv	s9,a3
    80000cc6:	fd05071b          	addiw	a4,a0,-48
    80000cca:	0ff77713          	zext.b	a4,a4
    80000cce:	0685                	addi	a3,a3,1
    80000cd0:	feeaf0e3          	bgeu	s5,a4,80000cb0 <_vsnprintf+0x132>
    80000cd4:	02e00713          	li	a4,46
    80000cd8:	4b81                	li	s7,0
    80000cda:	f4e511e3          	bne	a0,a4,80000c1c <_vsnprintf+0x9e>
    80000cde:	001cc503          	lbu	a0,1(s9)
    80000ce2:	40046413          	ori	s0,s0,1024
    80000ce6:	45a5                	li	a1,9
    80000ce8:	fd05071b          	addiw	a4,a0,-48
    80000cec:	0ff77713          	zext.b	a4,a4
    80000cf0:	8636                	mv	a2,a3
    80000cf2:	2401                	sext.w	s0,s0
    80000cf4:	24e5f863          	bgeu	a1,a4,80000f44 <_vsnprintf+0x3c6>
    80000cf8:	02a00713          	li	a4,42
    80000cfc:	28e50a63          	beq	a0,a4,80000f90 <_vsnprintf+0x412>
    80000d00:	8cb6                	mv	s9,a3
    80000d02:	0685                	addi	a3,a3,1
    80000d04:	bf21                	j	80000c1c <_vsnprintf+0x9e>
    80000d06:	64ea                	ld	s1,152(sp)
    80000d08:	7ae6                	ld	s5,120(sp)
    80000d0a:	7b46                	ld	s6,112(sp)
    80000d0c:	7ba6                	ld	s7,104(sp)
    80000d0e:	6d46                	ld	s10,80(sp)
    80000d10:	000d841b          	sext.w	s0,s11
    80000d14:	012de463          	bltu	s11,s2,80000d1c <_vsnprintf+0x19e>
    80000d18:	fff90d93          	addi	s11,s2,-1
    80000d1c:	86ca                	mv	a3,s2
    80000d1e:	866e                	mv	a2,s11
    80000d20:	85ce                	mv	a1,s3
    80000d22:	4501                	li	a0,0
    80000d24:	9a02                	jalr	s4
    80000d26:	70aa                	ld	ra,168(sp)
    80000d28:	8522                	mv	a0,s0
    80000d2a:	740a                	ld	s0,160(sp)
    80000d2c:	694a                	ld	s2,144(sp)
    80000d2e:	69aa                	ld	s3,136(sp)
    80000d30:	6a0a                	ld	s4,128(sp)
    80000d32:	7c06                	ld	s8,96(sp)
    80000d34:	6ce6                	ld	s9,88(sp)
    80000d36:	6da6                	ld	s11,72(sp)
    80000d38:	614d                	addi	sp,sp,176
    80000d3a:	8082                	ret
    80000d3c:	f975071b          	addiw	a4,a0,-105
    80000d40:	0ff77713          	zext.b	a4,a4
    80000d44:	46bd                	li	a3,15
    80000d46:	e6e6efe3          	bltu	a3,a4,80000bc4 <_vsnprintf+0x46>
    80000d4a:	6625                	lui	a2,0x9
    80000d4c:	4685                	li	a3,1
    80000d4e:	00e696b3          	sll	a3,a3,a4
    80000d52:	04160613          	addi	a2,a2,65 # 9041 <_start-0x7fff6fbf>
    80000d56:	8ef1                	and	a3,a3,a2
    80000d58:	20069d63          	bnez	a3,80000f72 <_vsnprintf+0x3f4>
    80000d5c:	46a9                	li	a3,10
    80000d5e:	04d70563          	beq	a4,a3,80000da8 <_vsnprintf+0x22a>
    80000d62:	479d                	li	a5,7
    80000d64:	e6f710e3          	bne	a4,a5,80000bc4 <_vsnprintf+0x46>
    80000d68:	02146793          	ori	a5,s0,33
    80000d6c:	000c3703          	ld	a4,0(s8)
    80000d70:	2781                	sext.w	a5,a5
    80000d72:	e43e                	sd	a5,8(sp)
    80000d74:	47c1                	li	a5,16
    80000d76:	e03e                	sd	a5,0(sp)
    80000d78:	866e                	mv	a2,s11
    80000d7a:	88de                	mv	a7,s7
    80000d7c:	4841                	li	a6,16
    80000d7e:	4781                	li	a5,0
    80000d80:	86ca                	mv	a3,s2
    80000d82:	85ce                	mv	a1,s3
    80000d84:	8552                	mv	a0,s4
    80000d86:	c4aff0ef          	jal	800001d0 <_ntoa_long>
    80000d8a:	0c21                	addi	s8,s8,8
    80000d8c:	8daa                	mv	s11,a0
    80000d8e:	b581                	j	80000bce <_vsnprintf+0x50>
    80000d90:	000c2703          	lw	a4,0(s8)
    80000d94:	0c21                	addi	s8,s8,8
    80000d96:	0007079b          	sext.w	a5,a4
    80000d9a:	08074d63          	bltz	a4,80000e34 <_vsnprintf+0x2b6>
    80000d9e:	001cc503          	lbu	a0,1(s9)
    80000da2:	8cb6                	mv	s9,a3
    80000da4:	0685                	addi	a3,a3,1
    80000da6:	b5b5                	j	80000c12 <_vsnprintf+0x94>
    80000da8:	000c3703          	ld	a4,0(s8)
    80000dac:	f03a                	sd	a4,32(sp)
    80000dae:	008c0713          	addi	a4,s8,8
    80000db2:	fc3a                	sd	a4,56(sp)
    80000db4:	5c7d                	li	s8,-1
    80000db6:	1e0b9c63          	bnez	s7,80000fae <_vsnprintf+0x430>
    80000dba:	7702                	ld	a4,32(sp)
    80000dbc:	00074503          	lbu	a0,0(a4)
    80000dc0:	46050a63          	beqz	a0,80001234 <_vsnprintf+0x6b6>
    80000dc4:	9c3a                	add	s8,s8,a4
    80000dc6:	a019                	j	80000dcc <_vsnprintf+0x24e>
    80000dc8:	2cec0b63          	beq	s8,a4,8000109e <_vsnprintf+0x520>
    80000dcc:	00174683          	lbu	a3,1(a4)
    80000dd0:	0705                	addi	a4,a4,1
    80000dd2:	fafd                	bnez	a3,80000dc8 <_vsnprintf+0x24a>
    80000dd4:	7682                	ld	a3,32(sp)
    80000dd6:	40d70c3b          	subw	s8,a4,a3
    80000dda:	40047713          	andi	a4,s0,1024
    80000dde:	f43a                	sd	a4,40(sp)
    80000de0:	c719                	beqz	a4,80000dee <_vsnprintf+0x270>
    80000de2:	875e                	mv	a4,s7
    80000de4:	017c7363          	bgeu	s8,s7,80000dea <_vsnprintf+0x26c>
    80000de8:	8762                	mv	a4,s8
    80000dea:	00070c1b          	sext.w	s8,a4
    80000dee:	00247713          	andi	a4,s0,2
    80000df2:	f83a                	sd	a4,48(sp)
    80000df4:	2c070263          	beqz	a4,800010b8 <_vsnprintf+0x53a>
    80000df8:	24050863          	beqz	a0,80001048 <_vsnprintf+0x4ca>
    80000dfc:	846e                	mv	s0,s11
    80000dfe:	7722                	ld	a4,40(sp)
    80000e00:	c711                	beqz	a4,80000e0c <_vsnprintf+0x28e>
    80000e02:	fffb871b          	addiw	a4,s7,-1
    80000e06:	020b8163          	beqz	s7,80000e28 <_vsnprintf+0x2aa>
    80000e0a:	8bba                	mv	s7,a4
    80000e0c:	ec3e                	sd	a5,24(sp)
    80000e0e:	8622                	mv	a2,s0
    80000e10:	86ca                	mv	a3,s2
    80000e12:	85ce                	mv	a1,s3
    80000e14:	9a02                	jalr	s4
    80000e16:	7782                	ld	a5,32(sp)
    80000e18:	0405                	addi	s0,s0,1
    80000e1a:	41b40733          	sub	a4,s0,s11
    80000e1e:	973e                	add	a4,a4,a5
    80000e20:	00074503          	lbu	a0,0(a4)
    80000e24:	67e2                	ld	a5,24(sp)
    80000e26:	fd61                	bnez	a0,80000dfe <_vsnprintf+0x280>
    80000e28:	7742                	ld	a4,48(sp)
    80000e2a:	20071e63          	bnez	a4,80001046 <_vsnprintf+0x4c8>
    80000e2e:	7c62                	ld	s8,56(sp)
    80000e30:	8da2                	mv	s11,s0
    80000e32:	bb71                	j	80000bce <_vsnprintf+0x50>
    80000e34:	00246413          	ori	s0,s0,2
    80000e38:	001cc503          	lbu	a0,1(s9)
    80000e3c:	2401                	sext.w	s0,s0
    80000e3e:	8cb6                	mv	s9,a3
    80000e40:	40e007bb          	negw	a5,a4
    80000e44:	0685                	addi	a3,a3,1
    80000e46:	b3f1                	j	80000c12 <_vsnprintf+0x94>
    80000e48:	001cc503          	lbu	a0,1(s9)
    80000e4c:	06c00713          	li	a4,108
    80000e50:	e2e511e3          	bne	a0,a4,80000c72 <_vsnprintf+0xf4>
    80000e54:	30046413          	ori	s0,s0,768
    80000e58:	002cc503          	lbu	a0,2(s9)
    80000e5c:	2401                	sext.w	s0,s0
    80000e5e:	003c8693          	addi	a3,s9,3
    80000e62:	bd21                	j	80000c7a <_vsnprintf+0xfc>
    80000e64:	001cc503          	lbu	a0,1(s9)
    80000e68:	06800713          	li	a4,104
    80000e6c:	22e50163          	beq	a0,a4,8000108e <_vsnprintf+0x510>
    80000e70:	08046413          	ori	s0,s0,128
    80000e74:	2401                	sext.w	s0,s0
    80000e76:	0685                	addi	a3,a3,1
    80000e78:	b509                	j	80000c7a <_vsnprintf+0xfc>
    80000e7a:	06700713          	li	a4,103
    80000e7e:	12e50d63          	beq	a0,a4,80000fb8 <_vsnprintf+0x43a>
    80000e82:	04700713          	li	a4,71
    80000e86:	1ee50a63          	beq	a0,a4,8000107a <_vsnprintf+0x4fc>
    80000e8a:	04500713          	li	a4,69
    80000e8e:	1ee50c63          	beq	a0,a4,80001086 <_vsnprintf+0x508>
    80000e92:	000c3507          	fld	fa0,0(s8)
    80000e96:	866e                	mv	a2,s11
    80000e98:	8822                	mv	a6,s0
    80000e9a:	875e                	mv	a4,s7
    80000e9c:	86ca                	mv	a3,s2
    80000e9e:	85ce                	mv	a1,s3
    80000ea0:	8552                	mv	a0,s4
    80000ea2:	ea8ff0ef          	jal	8000054a <_etoa>
    80000ea6:	0c21                	addi	s8,s8,8
    80000ea8:	8daa                	mv	s11,a0
    80000eaa:	b315                	j	80000bce <_vsnprintf+0x50>
    80000eac:	04600713          	li	a4,70
    80000eb0:	10e50b63          	beq	a0,a4,80000fc6 <_vsnprintf+0x448>
    80000eb4:	000c3507          	fld	fa0,0(s8)
    80000eb8:	866e                	mv	a2,s11
    80000eba:	8822                	mv	a6,s0
    80000ebc:	875e                	mv	a4,s7
    80000ebe:	86ca                	mv	a3,s2
    80000ec0:	85ce                	mv	a1,s3
    80000ec2:	8552                	mv	a0,s4
    80000ec4:	965ff0ef          	jal	80000828 <_ftoa>
    80000ec8:	0c21                	addi	s8,s8,8
    80000eca:	8daa                	mv	s11,a0
    80000ecc:	b309                	j	80000bce <_vsnprintf+0x50>
    80000ece:	008c0713          	addi	a4,s8,8
    80000ed2:	00247813          	andi	a6,s0,2
    80000ed6:	ec3a                	sd	a4,24(sp)
    80000ed8:	001d8b93          	addi	s7,s11,1
    80000edc:	22080163          	beqz	a6,800010fe <_vsnprintf+0x580>
    80000ee0:	000c4503          	lbu	a0,0(s8)
    80000ee4:	f03e                	sd	a5,32(sp)
    80000ee6:	86ca                	mv	a3,s2
    80000ee8:	866e                	mv	a2,s11
    80000eea:	85ce                	mv	a1,s3
    80000eec:	9a02                	jalr	s4
    80000eee:	7782                	ld	a5,32(sp)
    80000ef0:	4705                	li	a4,1
    80000ef2:	24f77e63          	bgeu	a4,a5,8000114e <_vsnprintf+0x5d0>
    80000ef6:	37f9                	addiw	a5,a5,-2
    80000ef8:	1782                	slli	a5,a5,0x20
    80000efa:	9381                	srli	a5,a5,0x20
    80000efc:	002d8e13          	addi	t3,s11,2
    80000f00:	01c78db3          	add	s11,a5,t3
    80000f04:	865e                	mv	a2,s7
    80000f06:	86ca                	mv	a3,s2
    80000f08:	0b85                	addi	s7,s7,1
    80000f0a:	85ce                	mv	a1,s3
    80000f0c:	02000513          	li	a0,32
    80000f10:	9a02                	jalr	s4
    80000f12:	ff7d99e3          	bne	s11,s7,80000f04 <_vsnprintf+0x386>
    80000f16:	6c62                	ld	s8,24(sp)
    80000f18:	b95d                	j	80000bce <_vsnprintf+0x50>
    80000f1a:	866e                	mv	a2,s11
    80000f1c:	86ca                	mv	a3,s2
    80000f1e:	85ce                	mv	a1,s3
    80000f20:	02500513          	li	a0,37
    80000f24:	0d85                	addi	s11,s11,1
    80000f26:	9a02                	jalr	s4
    80000f28:	b15d                	j	80000bce <_vsnprintf+0x50>
    80000f2a:	000cc503          	lbu	a0,0(s9)
    80000f2e:	fffffa17          	auipc	s4,0xfffff
    80000f32:	1dca0a13          	addi	s4,s4,476 # 8000010a <_out_null>
    80000f36:	4d81                	li	s11,0
    80000f38:	c60518e3          	bnez	a0,80000ba8 <_vsnprintf+0x2a>
    80000f3c:	4401                	li	s0,0
    80000f3e:	dd2defe3          	bltu	s11,s2,80000d1c <_vsnprintf+0x19e>
    80000f42:	bbd9                	j	80000d18 <_vsnprintf+0x19a>
    80000f44:	46a5                	li	a3,9
    80000f46:	002b971b          	slliw	a4,s7,0x2
    80000f4a:	0177073b          	addw	a4,a4,s7
    80000f4e:	0605                	addi	a2,a2,1
    80000f50:	0017171b          	slliw	a4,a4,0x1
    80000f54:	9f29                	addw	a4,a4,a0
    80000f56:	00064503          	lbu	a0,0(a2)
    80000f5a:	fd070b9b          	addiw	s7,a4,-48
    80000f5e:	fd05071b          	addiw	a4,a0,-48
    80000f62:	0ff77713          	zext.b	a4,a4
    80000f66:	fee6f0e3          	bgeu	a3,a4,80000f46 <_vsnprintf+0x3c8>
    80000f6a:	8cb2                	mv	s9,a2
    80000f6c:	00160693          	addi	a3,a2,1
    80000f70:	b175                	j	80000c1c <_vsnprintf+0x9e>
    80000f72:	06f00713          	li	a4,111
    80000f76:	04e50c63          	beq	a0,a4,80000fce <_vsnprintf+0x450>
    80000f7a:	1ea77c63          	bgeu	a4,a0,80001172 <_vsnprintf+0x5f4>
    80000f7e:	07800713          	li	a4,120
    80000f82:	4841                	li	a6,16
    80000f84:	04e50663          	beq	a0,a4,80000fd0 <_vsnprintf+0x452>
    80000f88:	983d                	andi	s0,s0,-17
    80000f8a:	2401                	sext.w	s0,s0
    80000f8c:	4829                	li	a6,10
    80000f8e:	a089                	j	80000fd0 <_vsnprintf+0x452>
    80000f90:	000c2703          	lw	a4,0(s8)
    80000f94:	002cc503          	lbu	a0,2(s9)
    80000f98:	0c89                	addi	s9,s9,2
    80000f9a:	fff74893          	not	a7,a4
    80000f9e:	43f8d893          	srai	a7,a7,0x3f
    80000fa2:	00e8fbb3          	and	s7,a7,a4
    80000fa6:	0c21                	addi	s8,s8,8
    80000fa8:	001c8693          	addi	a3,s9,1
    80000fac:	b985                	j	80000c1c <_vsnprintf+0x9e>
    80000fae:	020b9c13          	slli	s8,s7,0x20
    80000fb2:	020c5c13          	srli	s8,s8,0x20
    80000fb6:	b511                	j	80000dba <_vsnprintf+0x23c>
    80000fb8:	6705                	lui	a4,0x1
    80000fba:	80070713          	addi	a4,a4,-2048 # 800 <_start-0x7ffff800>
    80000fbe:	8f41                	or	a4,a4,s0
    80000fc0:	0007041b          	sext.w	s0,a4
    80000fc4:	b5f9                	j	80000e92 <_vsnprintf+0x314>
    80000fc6:	02046413          	ori	s0,s0,32
    80000fca:	2401                	sext.w	s0,s0
    80000fcc:	b5e5                	j	80000eb4 <_vsnprintf+0x336>
    80000fce:	4821                	li	a6,8
    80000fd0:	40047713          	andi	a4,s0,1024
    80000fd4:	eb69                	bnez	a4,800010a6 <_vsnprintf+0x528>
    80000fd6:	ff347693          	andi	a3,s0,-13
    80000fda:	2681                	sext.w	a3,a3
    80000fdc:	2006f713          	andi	a4,a3,512
    80000fe0:	008c0413          	addi	s0,s8,8
    80000fe4:	85b6                	mv	a1,a3
    80000fe6:	16071763          	bnez	a4,80001154 <_vsnprintf+0x5d6>
    80000fea:	1006f713          	andi	a4,a3,256
    80000fee:	22071663          	bnez	a4,8000121a <_vsnprintf+0x69c>
    80000ff2:	0405f713          	andi	a4,a1,64
    80000ff6:	14071363          	bnez	a4,8000113c <_vsnprintf+0x5be>
    80000ffa:	0805f593          	andi	a1,a1,128
    80000ffe:	22058d63          	beqz	a1,80001238 <_vsnprintf+0x6ba>
    80001002:	000c5703          	lhu	a4,0(s8)
    80001006:	1702                	slli	a4,a4,0x20
    80001008:	e03e                	sd	a5,0(sp)
    8000100a:	e436                	sd	a3,8(sp)
    8000100c:	88de                	mv	a7,s7
    8000100e:	4781                	li	a5,0
    80001010:	9301                	srli	a4,a4,0x20
    80001012:	866e                	mv	a2,s11
    80001014:	86ca                	mv	a3,s2
    80001016:	85ce                	mv	a1,s3
    80001018:	8552                	mv	a0,s4
    8000101a:	9b6ff0ef          	jal	800001d0 <_ntoa_long>
    8000101e:	8daa                	mv	s11,a0
    80001020:	8c22                	mv	s8,s0
    80001022:	b675                	j	80000bce <_vsnprintf+0x50>
    80001024:	05800713          	li	a4,88
    80001028:	08e50363          	beq	a0,a4,800010ae <_vsnprintf+0x530>
    8000102c:	06200713          	li	a4,98
    80001030:	4809                	li	a6,2
    80001032:	f8e50fe3          	beq	a0,a4,80000fd0 <_vsnprintf+0x452>
    80001036:	40047713          	andi	a4,s0,1024
    8000103a:	20071263          	bnez	a4,8000123e <_vsnprintf+0x6c0>
    8000103e:	fef47693          	andi	a3,s0,-17
    80001042:	2681                	sext.w	a3,a3
    80001044:	a2b1                	j	80001190 <_vsnprintf+0x612>
    80001046:	8da2                	mv	s11,s0
    80001048:	0afc7963          	bgeu	s8,a5,800010fa <_vsnprintf+0x57c>
    8000104c:	fff7881b          	addiw	a6,a5,-1
    80001050:	4188083b          	subw	a6,a6,s8
    80001054:	1802                	slli	a6,a6,0x20
    80001056:	02085813          	srli	a6,a6,0x20
    8000105a:	001d8c13          	addi	s8,s11,1
    8000105e:	01880433          	add	s0,a6,s8
    80001062:	a011                	j	80001066 <_vsnprintf+0x4e8>
    80001064:	0c05                	addi	s8,s8,1
    80001066:	866e                	mv	a2,s11
    80001068:	86ca                	mv	a3,s2
    8000106a:	85ce                	mv	a1,s3
    8000106c:	02000513          	li	a0,32
    80001070:	8de2                	mv	s11,s8
    80001072:	9a02                	jalr	s4
    80001074:	fe8c18e3          	bne	s8,s0,80001064 <_vsnprintf+0x4e6>
    80001078:	bb5d                	j	80000e2e <_vsnprintf+0x2b0>
    8000107a:	6705                	lui	a4,0x1
    8000107c:	80070713          	addi	a4,a4,-2048 # 800 <_start-0x7ffff800>
    80001080:	8f41                	or	a4,a4,s0
    80001082:	0007041b          	sext.w	s0,a4
    80001086:	02046413          	ori	s0,s0,32
    8000108a:	2401                	sext.w	s0,s0
    8000108c:	b519                	j	80000e92 <_vsnprintf+0x314>
    8000108e:	0c046413          	ori	s0,s0,192
    80001092:	002cc503          	lbu	a0,2(s9)
    80001096:	2401                	sext.w	s0,s0
    80001098:	003c8693          	addi	a3,s9,3
    8000109c:	bef9                	j	80000c7a <_vsnprintf+0xfc>
    8000109e:	7702                	ld	a4,32(sp)
    800010a0:	40ec0c3b          	subw	s8,s8,a4
    800010a4:	bb1d                	j	80000dda <_vsnprintf+0x25c>
    800010a6:	ff247693          	andi	a3,s0,-14
    800010aa:	2681                	sext.w	a3,a3
    800010ac:	bf05                	j	80000fdc <_vsnprintf+0x45e>
    800010ae:	02046413          	ori	s0,s0,32
    800010b2:	2401                	sext.w	s0,s0
    800010b4:	4841                	li	a6,16
    800010b6:	bf29                	j	80000fd0 <_vsnprintf+0x452>
    800010b8:	18fc7763          	bgeu	s8,a5,80001246 <_vsnprintf+0x6c8>
    800010bc:	fff7871b          	addiw	a4,a5,-1
    800010c0:	41870c3b          	subw	s8,a4,s8
    800010c4:	020c1713          	slli	a4,s8,0x20
    800010c8:	9301                	srli	a4,a4,0x20
    800010ca:	001d8c13          	addi	s8,s11,1
    800010ce:	01870433          	add	s0,a4,s8
    800010d2:	a011                	j	800010d6 <_vsnprintf+0x558>
    800010d4:	0c05                	addi	s8,s8,1
    800010d6:	ec3e                	sd	a5,24(sp)
    800010d8:	866e                	mv	a2,s11
    800010da:	86ca                	mv	a3,s2
    800010dc:	85ce                	mv	a1,s3
    800010de:	02000513          	li	a0,32
    800010e2:	9a02                	jalr	s4
    800010e4:	67e2                	ld	a5,24(sp)
    800010e6:	8de2                	mv	s11,s8
    800010e8:	fe8c16e3          	bne	s8,s0,800010d4 <_vsnprintf+0x556>
    800010ec:	7702                	ld	a4,32(sp)
    800010ee:	00178c1b          	addiw	s8,a5,1
    800010f2:	00074503          	lbu	a0,0(a4)
    800010f6:	d00513e3          	bnez	a0,80000dfc <_vsnprintf+0x27e>
    800010fa:	846e                	mv	s0,s11
    800010fc:	bb0d                	j	80000e2e <_vsnprintf+0x2b0>
    800010fe:	4705                	li	a4,1
    80001100:	04f77163          	bgeu	a4,a5,80001142 <_vsnprintf+0x5c4>
    80001104:	37f9                	addiw	a5,a5,-2
    80001106:	1782                	slli	a5,a5,0x20
    80001108:	9381                	srli	a5,a5,0x20
    8000110a:	f03e                	sd	a5,32(sp)
    8000110c:	9bbe                	add	s7,s7,a5
    8000110e:	846e                	mv	s0,s11
    80001110:	8622                	mv	a2,s0
    80001112:	86ca                	mv	a3,s2
    80001114:	0405                	addi	s0,s0,1
    80001116:	85ce                	mv	a1,s3
    80001118:	02000513          	li	a0,32
    8000111c:	9a02                	jalr	s4
    8000111e:	fe8b99e3          	bne	s7,s0,80001110 <_vsnprintf+0x592>
    80001122:	000c4503          	lbu	a0,0(s8)
    80001126:	7782                	ld	a5,32(sp)
    80001128:	002d8e13          	addi	t3,s11,2
    8000112c:	86ca                	mv	a3,s2
    8000112e:	865e                	mv	a2,s7
    80001130:	85ce                	mv	a1,s3
    80001132:	01c78db3          	add	s11,a5,t3
    80001136:	9a02                	jalr	s4
    80001138:	6c62                	ld	s8,24(sp)
    8000113a:	bc51                	j	80000bce <_vsnprintf+0x50>
    8000113c:	000c4703          	lbu	a4,0(s8)
    80001140:	b5d9                	j	80001006 <_vsnprintf+0x488>
    80001142:	000c4503          	lbu	a0,0(s8)
    80001146:	86ca                	mv	a3,s2
    80001148:	866e                	mv	a2,s11
    8000114a:	85ce                	mv	a1,s3
    8000114c:	9a02                	jalr	s4
    8000114e:	6c62                	ld	s8,24(sp)
    80001150:	8dde                	mv	s11,s7
    80001152:	bcb5                	j	80000bce <_vsnprintf+0x50>
    80001154:	000c3703          	ld	a4,0(s8)
    80001158:	88de                	mv	a7,s7
    8000115a:	e03e                	sd	a5,0(sp)
    8000115c:	e436                	sd	a3,8(sp)
    8000115e:	4781                	li	a5,0
    80001160:	866e                	mv	a2,s11
    80001162:	86ca                	mv	a3,s2
    80001164:	85ce                	mv	a1,s3
    80001166:	8552                	mv	a0,s4
    80001168:	868ff0ef          	jal	800001d0 <_ntoa_long>
    8000116c:	8daa                	mv	s11,a0
    8000116e:	8c22                	mv	s8,s0
    80001170:	bcb9                	j	80000bce <_vsnprintf+0x50>
    80001172:	fef47693          	andi	a3,s0,-17
    80001176:	06900613          	li	a2,105
    8000117a:	8722                	mv	a4,s0
    8000117c:	2681                	sext.w	a3,a3
    8000117e:	0cc51863          	bne	a0,a2,8000124e <_vsnprintf+0x6d0>
    80001182:	40047813          	andi	a6,s0,1024
    80001186:	00080563          	beqz	a6,80001190 <_vsnprintf+0x612>
    8000118a:	9b39                	andi	a4,a4,-18
    8000118c:	0007069b          	sext.w	a3,a4
    80001190:	2006f713          	andi	a4,a3,512
    80001194:	008c0413          	addi	s0,s8,8
    80001198:	85b6                	mv	a1,a3
    8000119a:	e31d                	bnez	a4,800011c0 <_vsnprintf+0x642>
    8000119c:	1006f713          	andi	a4,a3,256
    800011a0:	ef31                	bnez	a4,800011fc <_vsnprintf+0x67e>
    800011a2:	0405f713          	andi	a4,a1,64
    800011a6:	000c2603          	lw	a2,0(s8)
    800011aa:	cb15                	beqz	a4,800011de <_vsnprintf+0x660>
    800011ac:	0ff67613          	zext.b	a2,a2
    800011b0:	8732                	mv	a4,a2
    800011b2:	e03e                	sd	a5,0(sp)
    800011b4:	e436                	sd	a3,8(sp)
    800011b6:	88de                	mv	a7,s7
    800011b8:	4829                	li	a6,10
    800011ba:	01f6579b          	srliw	a5,a2,0x1f
    800011be:	bd91                	j	80001012 <_vsnprintf+0x494>
    800011c0:	000c3603          	ld	a2,0(s8)
    800011c4:	e436                	sd	a3,8(sp)
    800011c6:	e03e                	sd	a5,0(sp)
    800011c8:	43f65713          	srai	a4,a2,0x3f
    800011cc:	00c746b3          	xor	a3,a4,a2
    800011d0:	88de                	mv	a7,s7
    800011d2:	4829                	li	a6,10
    800011d4:	03f65793          	srli	a5,a2,0x3f
    800011d8:	40e68733          	sub	a4,a3,a4
    800011dc:	b751                	j	80001160 <_vsnprintf+0x5e2>
    800011de:	0805f593          	andi	a1,a1,128
    800011e2:	c1b9                	beqz	a1,80001228 <_vsnprintf+0x6aa>
    800011e4:	0106161b          	slliw	a2,a2,0x10
    800011e8:	4106561b          	sraiw	a2,a2,0x10
    800011ec:	40f6559b          	sraiw	a1,a2,0xf
    800011f0:	00b64733          	xor	a4,a2,a1
    800011f4:	9f0d                	subw	a4,a4,a1
    800011f6:	1742                	slli	a4,a4,0x30
    800011f8:	9341                	srli	a4,a4,0x30
    800011fa:	bf65                	j	800011b2 <_vsnprintf+0x634>
    800011fc:	000c3603          	ld	a2,0(s8)
    80001200:	e436                	sd	a3,8(sp)
    80001202:	e03e                	sd	a5,0(sp)
    80001204:	43f65713          	srai	a4,a2,0x3f
    80001208:	00c746b3          	xor	a3,a4,a2
    8000120c:	88de                	mv	a7,s7
    8000120e:	4829                	li	a6,10
    80001210:	03f65793          	srli	a5,a2,0x3f
    80001214:	40e68733          	sub	a4,a3,a4
    80001218:	bbed                	j	80001012 <_vsnprintf+0x494>
    8000121a:	000c3703          	ld	a4,0(s8)
    8000121e:	88de                	mv	a7,s7
    80001220:	e03e                	sd	a5,0(sp)
    80001222:	e436                	sd	a3,8(sp)
    80001224:	4781                	li	a5,0
    80001226:	b3f5                	j	80001012 <_vsnprintf+0x494>
    80001228:	41f6559b          	sraiw	a1,a2,0x1f
    8000122c:	00b64733          	xor	a4,a2,a1
    80001230:	9f0d                	subw	a4,a4,a1
    80001232:	b741                	j	800011b2 <_vsnprintf+0x634>
    80001234:	4c01                	li	s8,0
    80001236:	b655                	j	80000dda <_vsnprintf+0x25c>
    80001238:	000c2703          	lw	a4,0(s8)
    8000123c:	b3e9                	j	80001006 <_vsnprintf+0x488>
    8000123e:	fee47693          	andi	a3,s0,-18
    80001242:	2681                	sext.w	a3,a3
    80001244:	b7b1                	j	80001190 <_vsnprintf+0x612>
    80001246:	2c05                	addiw	s8,s8,1
    80001248:	ba051ae3          	bnez	a0,80000dfc <_vsnprintf+0x27e>
    8000124c:	b57d                	j	800010fa <_vsnprintf+0x57c>
    8000124e:	8436                	mv	s0,a3
    80001250:	4829                	li	a6,10
    80001252:	bbbd                	j	80000fd0 <_vsnprintf+0x452>

Disassembly of section .text.printf_:

0000000080001254 <printf_>:
    80001254:	711d                	addi	sp,sp,-96
    80001256:	02810313          	addi	t1,sp,40
    8000125a:	f42e                	sd	a1,40(sp)
    8000125c:	f832                	sd	a2,48(sp)
    8000125e:	fc36                	sd	a3,56(sp)
    80001260:	e0ba                	sd	a4,64(sp)
    80001262:	86aa                	mv	a3,a0
    80001264:	858a                	mv	a1,sp
    80001266:	871a                	mv	a4,t1
    80001268:	567d                	li	a2,-1
    8000126a:	00000517          	auipc	a0,0x0
    8000126e:	90c50513          	addi	a0,a0,-1780 # 80000b76 <_out_char>
    80001272:	ec06                	sd	ra,24(sp)
    80001274:	e4be                	sd	a5,72(sp)
    80001276:	e8c2                	sd	a6,80(sp)
    80001278:	ecc6                	sd	a7,88(sp)
    8000127a:	e41a                	sd	t1,8(sp)
    8000127c:	903ff0ef          	jal	80000b7e <_vsnprintf>
    80001280:	60e2                	ld	ra,24(sp)
    80001282:	6125                	addi	sp,sp,96
    80001284:	8082                	ret
